Certificate:
    Data:
        Version: 3 (0x2)
        Serial Number: 3 (0x3)
    Signature Algorithm: sha256WithRSAEncryption
        Issuer: C=RU, ST=RU, L=Yekaterinburg, O=ructf.org, OU=ructf, CN=ructf.org CA/name=DevVPN/emailAddress=dimmoborgir@gmail.com
        Validity
            Not Before: Mar 25 19:02:42 2016 GMT
            Not After : Mar 23 19:02:42 2026 GMT
        Subject: C=RU, ST=RU, L=Yekaterinburg, O=ructf.org, OU=ructf, CN=team02/name=DevVPN/emailAddress=dimmoborgir@gmail.com
        Subject Public Key Info:
            Public Key Algorithm: rsaEncryption
                Public-Key: (2048 bit)
                Modulus:
                    00:b9:07:a6:37:f3:1c:3f:79:42:99:9b:22:3b:7a:
                    7e:76:8d:e1:58:8f:7c:8a:2f:b3:6e:3b:67:77:6d:
                    71:dc:da:42:81:16:9b:86:76:24:45:76:a5:2b:d8:
                    be:85:05:66:e8:8d:37:3b:f1:9a:86:63:a3:85:8e:
                    e2:a5:ac:17:96:7f:8b:09:2e:3d:d9:d7:e4:67:d0:
                    09:4a:46:61:69:70:68:9c:25:a1:58:c8:a1:38:14:
                    71:14:59:c0:4c:88:92:21:e3:b2:f4:93:57:8c:ce:
                    37:8c:af:b3:ad:40:cc:70:f9:14:1b:fe:08:47:42:
                    da:ea:69:ba:2d:8b:ca:8c:e7:c3:43:db:fa:ee:bf:
                    e8:e8:7f:77:8c:34:62:7c:b4:96:36:3d:b4:a7:ff:
                    e5:96:19:53:c6:2c:7d:11:3e:06:4f:b2:ab:23:81:
                    33:09:fe:a2:8c:e1:8d:39:d4:ea:48:f9:a3:51:ce:
                    a6:c2:0c:e1:21:21:43:ff:b3:76:40:bc:33:28:69:
                    72:7f:d2:fb:22:4b:90:00:cb:a3:6d:a1:d7:8d:14:
                    7f:96:2e:c7:4b:20:ce:be:09:ac:6f:36:bb:3e:64:
                    64:a9:bf:ea:41:e5:da:4c:8e:d0:a0:3e:f1:8b:51:
                    c6:2a:d9:eb:c4:5c:3c:49:48:c7:d1:d1:fb:ab:15:
                    14:75
                Exponent: 65537 (0x10001)
        X509v3 extensions:
            X509v3 Basic Constraints: 
                CA:FALSE
            Netscape Comment: 
                Easy-RSA Generated Certificate
            X509v3 Subject Key Identifier: 
                47:0B:85:03:78:62:E5:A6:77:CA:2C:18:C3:8D:F5:EF:DD:51:FB:0C
            X509v3 Authority Key Identifier: 
                keyid:51:72:5A:C7:75:83:A3:39:2E:20:20:E0:70:09:2E:0B:D8:3E:8C:2B
                DirName:/C=RU/ST=RU/L=Yekaterinburg/O=ructf.org/OU=ructf/CN=ructf.org CA/name=DevVPN/emailAddress=dimmoborgir@gmail.com
                serial:CD:45:70:F1:6A:E7:FD:B6

            X509v3 Extended Key Usage: 
                TLS Web Client Authentication
            X509v3 Key Usage: 
                Digital Signature
    Signature Algorithm: sha256WithRSAEncryption
         18:40:75:0c:12:52:50:df:d1:26:9a:24:52:f6:45:22:15:91:
         0f:bf:21:a9:72:fa:33:89:d3:50:4a:c3:d8:92:f2:74:f1:fb:
         94:02:3a:53:45:0b:d8:00:65:ef:63:43:c3:1a:ce:7e:e9:4a:
         71:ef:51:cc:43:7f:6d:c3:c0:10:a7:11:8e:80:cb:5a:65:1b:
         89:77:17:cf:d0:cc:bc:40:8a:19:8b:35:96:24:e1:14:49:6f:
         29:3f:0d:5e:1b:c8:6e:d8:6c:6e:a2:55:36:93:e5:70:3b:2b:
         09:f1:3f:34:91:8a:c0:bd:fa:3f:f2:5c:c9:d5:52:04:a9:99:
         83:7d:ec:ce:01:e9:16:30:4e:bc:24:25:39:f1:a8:e9:26:77:
         01:b4:3d:24:f8:71:43:de:d6:16:49:f2:a9:e5:c3:e2:fd:ea:
         ae:b6:1b:db:9e:8d:79:f4:07:b8:70:d5:3f:99:3f:ea:d3:e7:
         81:7b:a9:92:be:0d:f6:87:f9:fb:78:e8:f7:1f:8e:72:bb:8c:
         65:3c:8b:43:35:89:e6:54:d3:50:84:84:b5:17:5a:f2:67:e6:
         ad:0d:08:2d:12:18:3e:11:ae:ab:96:68:24:ae:24:b8:d7:5a:
         a2:f7:17:f6:65:2f:f8:66:0b:0c:73:96:2b:83:1a:23:bd:92:
         61:24:8c:58
-----BEGIN CERTIFICATE-----
MIIFHDCCBASgAwIBAgIBAzANBgkqhkiG9w0BAQsFADCBpDELMAkGA1UEBhMCUlUx
CzAJBgNVBAgTAlJVMRYwFAYDVQQHEw1ZZWthdGVyaW5idXJnMRIwEAYDVQQKEwly
dWN0Zi5vcmcxDjAMBgNVBAsTBXJ1Y3RmMRUwEwYDVQQDEwxydWN0Zi5vcmcgQ0Ex
DzANBgNVBCkTBkRldlZQTjEkMCIGCSqGSIb3DQEJARYVZGltbW9ib3JnaXJAZ21h
aWwuY29tMB4XDTE2MDMyNTE5MDI0MloXDTI2MDMyMzE5MDI0MlowgZ4xCzAJBgNV
BAYTAlJVMQswCQYDVQQIEwJSVTEWMBQGA1UEBxMNWWVrYXRlcmluYnVyZzESMBAG
A1UEChMJcnVjdGYub3JnMQ4wDAYDVQQLEwVydWN0ZjEPMA0GA1UEAxMGdGVhbTAy
MQ8wDQYDVQQpEwZEZXZWUE4xJDAiBgkqhkiG9w0BCQEWFWRpbW1vYm9yZ2lyQGdt
YWlsLmNvbTCCASIwDQYJKoZIhvcNAQEBBQADggEPADCCAQoCggEBALkHpjfzHD95
QpmbIjt6fnaN4ViPfIovs247Z3dtcdzaQoEWm4Z2JEV2pSvYvoUFZuiNNzvxmoZj
o4WO4qWsF5Z/iwkuPdnX5GfQCUpGYWlwaJwloVjIoTgUcRRZwEyIkiHjsvSTV4zO
N4yvs61AzHD5FBv+CEdC2uppui2Lyoznw0Pb+u6/6Oh/d4w0Yny0ljY9tKf/5ZYZ
U8YsfRE+Bk+yqyOBMwn+oozhjTnU6kj5o1HOpsIM4SEhQ/+zdkC8Myhpcn/S+yJL
kADLo22h140Uf5Yux0sgzr4JrG82uz5kZKm/6kHl2kyO0KA+8YtRxirZ68RcPElI
x9HR+6sVFHUCAwEAAaOCAVswggFXMAkGA1UdEwQCMAAwLQYJYIZIAYb4QgENBCAW
HkVhc3ktUlNBIEdlbmVyYXRlZCBDZXJ0aWZpY2F0ZTAdBgNVHQ4EFgQURwuFA3hi
5aZ3yiwYw431791R+wwwgdkGA1UdIwSB0TCBzoAUUXJax3WDozkuICDgcAkuC9g+
jCuhgaqkgacwgaQxCzAJBgNVBAYTAlJVMQswCQYDVQQIEwJSVTEWMBQGA1UEBxMN
WWVrYXRlcmluYnVyZzESMBAGA1UEChMJcnVjdGYub3JnMQ4wDAYDVQQLEwVydWN0
ZjEVMBMGA1UEAxMMcnVjdGYub3JnIENBMQ8wDQYDVQQpEwZEZXZWUE4xJDAiBgkq
hkiG9w0BCQEWFWRpbW1vYm9yZ2lyQGdtYWlsLmNvbYIJAM1FcPFq5/22MBMGA1Ud
JQQMMAoGCCsGAQUFBwMCMAsGA1UdDwQEAwIHgDANBgkqhkiG9w0BAQsFAAOCAQEA
GEB1DBJSUN/RJpokUvZFIhWRD78hqXL6M4nTUErD2JLydPH7lAI6U0UL2ABl72ND
wxrOfulKce9RzEN/bcPAEKcRjoDLWmUbiXcXz9DMvECKGYs1liThFElvKT8NXhvI
bthsbqJVNpPlcDsrCfE/NJGKwL36P/JcydVSBKmZg33szgHpFjBOvCQlOfGo6SZ3
AbQ9JPhxQ97WFknyqeXD4v3qrrYb256NefQHuHDVP5k/6tPngXupkr4N9of5+3jo
9x+OcruMZTyLQzWJ5lTTUISEtRda8mfmrQ0ILRIYPhGuq5ZoJK4kuNdaovcX9mUv
+GYLDHOWK4MaI72SYSSMWA==
-----END CERTIFICATE-----
