Certificate:
    Data:
        Version: 3 (0x2)
        Serial Number: 4 (0x4)
    Signature Algorithm: sha256WithRSAEncryption
        Issuer: C=RU, ST=RU, L=Yekaterinburg, O=ructf.org, OU=ructf, CN=ructf.org CA/name=DevVPN/emailAddress=dimmoborgir@gmail.com
        Validity
            Not Before: Mar 25 19:21:18 2016 GMT
            Not After : Mar 23 19:21:18 2026 GMT
        Subject: C=RU, ST=RU, L=Yekaterinburg, O=ructf.org, OU=ructf, CN=team03/name=DevVPN/emailAddress=dimmoborgir@gmail.com
        Subject Public Key Info:
            Public Key Algorithm: rsaEncryption
                Public-Key: (2048 bit)
                Modulus:
                    00:de:46:b7:3a:21:15:a9:e9:1c:0a:11:83:79:93:
                    f6:0f:a3:7d:97:55:1a:f3:bb:a0:28:0e:f9:81:a3:
                    6e:bd:69:b2:d4:f7:6a:4e:23:b9:87:18:fd:6f:80:
                    13:db:c1:1c:7b:ef:e2:40:9d:82:4a:49:12:2b:97:
                    4b:05:91:3d:af:56:85:b2:b8:ab:bb:e8:c6:f0:76:
                    7d:a6:e6:7a:65:03:fb:1a:87:18:c9:45:9f:e5:a9:
                    15:77:bb:db:f2:ad:3a:b6:4d:0f:34:6f:b3:1d:34:
                    a5:2e:08:b2:7d:01:00:dc:b6:01:90:28:15:0d:ad:
                    33:36:e3:40:6b:7f:ec:42:6a:0d:20:36:30:6e:57:
                    3e:80:68:83:c2:87:1a:30:91:5f:9c:3e:9f:ee:a3:
                    23:74:01:ed:be:49:8d:55:ab:1a:3f:e6:ac:34:4b:
                    71:75:f1:4c:c6:fb:b3:0e:3e:4e:41:90:0f:a1:d0:
                    54:6e:0f:0a:f3:c6:8e:3c:61:f5:6d:49:a0:57:f4:
                    e4:47:9c:59:eb:f4:af:9b:bb:a8:38:9c:94:ac:82:
                    03:28:dd:41:c9:c4:f7:27:40:ea:a1:bb:94:a2:ff:
                    1f:5c:5c:1f:1c:46:ba:87:c2:44:25:ed:65:21:30:
                    d2:08:71:b0:9e:55:37:46:02:79:39:4c:ba:9f:51:
                    d5:31
                Exponent: 65537 (0x10001)
        X509v3 extensions:
            X509v3 Basic Constraints: 
                CA:FALSE
            Netscape Comment: 
                Easy-RSA Generated Certificate
            X509v3 Subject Key Identifier: 
                0F:82:18:89:62:C5:A4:46:BB:0E:19:17:61:4F:59:9D:9C:4C:DB:E1
            X509v3 Authority Key Identifier: 
                keyid:51:72:5A:C7:75:83:A3:39:2E:20:20:E0:70:09:2E:0B:D8:3E:8C:2B
                DirName:/C=RU/ST=RU/L=Yekaterinburg/O=ructf.org/OU=ructf/CN=ructf.org CA/name=DevVPN/emailAddress=dimmoborgir@gmail.com
                serial:CD:45:70:F1:6A:E7:FD:B6

            X509v3 Extended Key Usage: 
                TLS Web Client Authentication
            X509v3 Key Usage: 
                Digital Signature
    Signature Algorithm: sha256WithRSAEncryption
         5e:22:19:c5:97:df:69:69:e4:d6:a4:d9:51:3c:74:6e:ee:a9:
         4a:37:5d:57:e4:6b:a4:40:f0:0b:d6:01:76:76:90:93:a9:97:
         e1:f8:ae:c7:83:a5:2f:14:21:e1:73:ad:bc:fd:76:6a:79:56:
         95:87:0d:f5:d2:8d:8d:54:55:ee:90:a4:89:20:6f:10:a4:d4:
         29:16:9a:2d:92:6c:04:af:21:7f:1b:53:f7:5c:d7:6b:80:20:
         80:ea:2b:61:04:02:44:aa:4a:42:18:b4:fd:27:ab:ee:eb:24:
         dd:ba:19:05:de:cc:fd:7d:8f:9c:0a:7a:3a:8f:b6:d6:0f:8d:
         86:77:6a:10:b4:af:41:02:02:87:86:b6:09:e6:74:06:93:0f:
         09:a5:28:40:fd:50:bd:19:f3:52:15:87:89:53:83:80:17:03:
         f1:21:c5:13:3d:16:42:6c:8f:37:0f:5a:a9:99:b7:99:eb:72:
         1c:7a:ab:3a:e0:19:dc:89:82:97:05:5d:ad:5c:26:51:22:c2:
         ed:da:21:10:d0:eb:ba:6d:c5:5e:51:3a:6b:0d:54:d5:91:c8:
         f3:c3:22:89:ac:26:73:6e:0a:4b:74:e8:69:59:7c:ff:d3:d8:
         06:52:5c:7a:c4:b7:1d:e4:2e:40:a3:e4:b4:15:6e:bc:92:23:
         b4:98:86:59
-----BEGIN CERTIFICATE-----
MIIFHDCCBASgAwIBAgIBBDANBgkqhkiG9w0BAQsFADCBpDELMAkGA1UEBhMCUlUx
CzAJBgNVBAgTAlJVMRYwFAYDVQQHEw1ZZWthdGVyaW5idXJnMRIwEAYDVQQKEwly
dWN0Zi5vcmcxDjAMBgNVBAsTBXJ1Y3RmMRUwEwYDVQQDEwxydWN0Zi5vcmcgQ0Ex
DzANBgNVBCkTBkRldlZQTjEkMCIGCSqGSIb3DQEJARYVZGltbW9ib3JnaXJAZ21h
aWwuY29tMB4XDTE2MDMyNTE5MjExOFoXDTI2MDMyMzE5MjExOFowgZ4xCzAJBgNV
BAYTAlJVMQswCQYDVQQIEwJSVTEWMBQGA1UEBxMNWWVrYXRlcmluYnVyZzESMBAG
A1UEChMJcnVjdGYub3JnMQ4wDAYDVQQLEwVydWN0ZjEPMA0GA1UEAxMGdGVhbTAz
MQ8wDQYDVQQpEwZEZXZWUE4xJDAiBgkqhkiG9w0BCQEWFWRpbW1vYm9yZ2lyQGdt
YWlsLmNvbTCCASIwDQYJKoZIhvcNAQEBBQADggEPADCCAQoCggEBAN5GtzohFanp
HAoRg3mT9g+jfZdVGvO7oCgO+YGjbr1pstT3ak4juYcY/W+AE9vBHHvv4kCdgkpJ
EiuXSwWRPa9WhbK4q7voxvB2fabmemUD+xqHGMlFn+WpFXe72/KtOrZNDzRvsx00
pS4Isn0BANy2AZAoFQ2tMzbjQGt/7EJqDSA2MG5XPoBog8KHGjCRX5w+n+6jI3QB
7b5JjVWrGj/mrDRLcXXxTMb7sw4+TkGQD6HQVG4PCvPGjjxh9W1JoFf05EecWev0
r5u7qDiclKyCAyjdQcnE9ydA6qG7lKL/H1xcHxxGuofCRCXtZSEw0ghxsJ5VN0YC
eTlMup9R1TECAwEAAaOCAVswggFXMAkGA1UdEwQCMAAwLQYJYIZIAYb4QgENBCAW
HkVhc3ktUlNBIEdlbmVyYXRlZCBDZXJ0aWZpY2F0ZTAdBgNVHQ4EFgQUD4IYiWLF
pEa7DhkXYU9ZnZxM2+EwgdkGA1UdIwSB0TCBzoAUUXJax3WDozkuICDgcAkuC9g+
jCuhgaqkgacwgaQxCzAJBgNVBAYTAlJVMQswCQYDVQQIEwJSVTEWMBQGA1UEBxMN
WWVrYXRlcmluYnVyZzESMBAGA1UEChMJcnVjdGYub3JnMQ4wDAYDVQQLEwVydWN0
ZjEVMBMGA1UEAxMMcnVjdGYub3JnIENBMQ8wDQYDVQQpEwZEZXZWUE4xJDAiBgkq
hkiG9w0BCQEWFWRpbW1vYm9yZ2lyQGdtYWlsLmNvbYIJAM1FcPFq5/22MBMGA1Ud
JQQMMAoGCCsGAQUFBwMCMAsGA1UdDwQEAwIHgDANBgkqhkiG9w0BAQsFAAOCAQEA
XiIZxZffaWnk1qTZUTx0bu6pSjddV+RrpEDwC9YBdnaQk6mX4fiux4OlLxQh4XOt
vP12anlWlYcN9dKNjVRV7pCkiSBvEKTUKRaaLZJsBK8hfxtT91zXa4AggOorYQQC
RKpKQhi0/Ser7usk3boZBd7M/X2PnAp6Oo+21g+NhndqELSvQQICh4a2CeZ0BpMP
CaUoQP1QvRnzUhWHiVODgBcD8SHFEz0WQmyPNw9aqZm3metyHHqrOuAZ3ImClwVd
rVwmUSLC7dohENDrum3FXlE6aw1U1ZHI88Miiawmc24KS3ToaVl8/9PYBlJcesS3
HeQuQKPktBVuvJIjtJiGWQ==
-----END CERTIFICATE-----
