Certificate:
    Data:
        Version: 3 (0x2)
        Serial Number: 5 (0x5)
    Signature Algorithm: sha256WithRSAEncryption
        Issuer: C=RU, ST=RU, L=Yekaterinburg, O=ructf.org, OU=ructf, CN=ructf.org CA/name=DevVPN/emailAddress=dimmoborgir@gmail.com
        Validity
            Not Before: Mar 25 19:21:58 2016 GMT
            Not After : Mar 23 19:21:58 2026 GMT
        Subject: C=RU, ST=RU, L=Yekaterinburg, O=ructf.org, OU=ructf, CN=team04/name=DevVPN/emailAddress=dimmoborgir@gmail.com
        Subject Public Key Info:
            Public Key Algorithm: rsaEncryption
                Public-Key: (2048 bit)
                Modulus:
                    00:ef:e2:49:69:40:0b:af:56:dc:6c:66:77:52:2c:
                    a4:a5:e4:55:f2:c2:53:ca:10:af:aa:48:f3:38:a2:
                    7f:05:e4:d9:8f:f9:c1:32:47:cb:ce:0c:15:07:22:
                    72:71:92:fe:50:84:3b:3c:61:f6:83:94:e9:4d:f8:
                    24:89:d6:a3:2c:c9:12:df:34:04:b3:d6:02:72:51:
                    0a:ab:4f:1b:ac:31:ce:6c:05:7e:4f:cb:cb:3f:38:
                    a2:ad:cb:1b:cc:fe:76:1c:28:2d:58:65:da:3f:b0:
                    66:87:8a:a8:dc:82:04:e5:7a:a4:b0:22:9c:96:9b:
                    af:01:73:ec:f6:b8:71:25:21:9e:e2:25:4b:2b:42:
                    0c:3b:9e:5f:58:6d:58:dc:db:23:98:36:15:fd:66:
                    71:21:54:60:e9:ad:29:ec:fd:f2:67:6c:dc:0c:62:
                    f4:c0:bf:bc:dc:f6:66:be:9c:45:9e:6b:3c:20:20:
                    31:c8:08:c6:fa:70:23:22:94:e9:cc:6a:cd:0f:8c:
                    cc:52:84:3e:79:8d:dd:be:de:e3:f6:f3:0f:d1:06:
                    c3:81:fe:8e:5c:84:63:40:77:94:c1:9b:f9:51:59:
                    d2:61:ba:fd:47:86:67:3b:38:e9:9a:f1:cc:6d:53:
                    ae:01:d6:51:19:ad:98:dc:10:96:46:34:79:17:62:
                    ef:a7
                Exponent: 65537 (0x10001)
        X509v3 extensions:
            X509v3 Basic Constraints: 
                CA:FALSE
            Netscape Comment: 
                Easy-RSA Generated Certificate
            X509v3 Subject Key Identifier: 
                27:87:20:F1:37:0D:17:3E:E8:DE:84:57:4E:9E:65:8D:94:70:8F:EB
            X509v3 Authority Key Identifier: 
                keyid:51:72:5A:C7:75:83:A3:39:2E:20:20:E0:70:09:2E:0B:D8:3E:8C:2B
                DirName:/C=RU/ST=RU/L=Yekaterinburg/O=ructf.org/OU=ructf/CN=ructf.org CA/name=DevVPN/emailAddress=dimmoborgir@gmail.com
                serial:CD:45:70:F1:6A:E7:FD:B6

            X509v3 Extended Key Usage: 
                TLS Web Client Authentication
            X509v3 Key Usage: 
                Digital Signature
    Signature Algorithm: sha256WithRSAEncryption
         39:50:22:7b:35:ac:c9:f6:3b:b3:81:80:1f:21:12:77:98:d8:
         38:c7:31:1b:d1:da:19:a5:90:2c:37:0f:7b:11:39:b1:e3:ab:
         fa:24:49:f4:fa:e6:2c:41:97:af:8a:7f:d2:e3:2e:6b:5e:25:
         6b:02:11:4b:85:40:92:3e:3e:c4:6b:4e:c4:b6:3c:2c:71:2e:
         26:54:69:36:f0:ee:6d:c6:fd:9c:fb:fb:de:8b:25:9c:7f:1d:
         23:07:f8:50:20:36:94:99:2d:41:c1:c1:ea:63:0a:14:71:42:
         18:a7:13:9a:1d:0c:a0:6f:62:91:a9:ab:61:0b:a4:94:30:24:
         55:7b:8a:73:ce:dd:89:f9:20:45:bd:f1:79:6a:d1:cf:c3:0e:
         ee:16:f0:da:e5:e0:0d:dc:5c:51:9f:46:70:2f:8c:85:ab:86:
         93:78:bc:db:dc:6c:40:93:9d:b0:14:f3:c5:d1:00:10:70:ec:
         b0:ae:ba:cb:d9:ec:c5:e9:ba:2f:a6:a5:38:9b:bb:f5:06:93:
         a4:36:2a:dd:62:af:31:07:e8:21:9b:59:1d:cb:b4:02:5e:eb:
         bc:40:c2:5f:28:d5:18:4e:e8:53:87:e9:2a:cb:97:e0:41:6f:
         de:53:b9:de:d0:84:ec:0a:ee:97:ce:72:a4:ab:75:76:ca:29:
         88:4c:95:a7
-----BEGIN CERTIFICATE-----
MIIFHDCCBASgAwIBAgIBBTANBgkqhkiG9w0BAQsFADCBpDELMAkGA1UEBhMCUlUx
CzAJBgNVBAgTAlJVMRYwFAYDVQQHEw1ZZWthdGVyaW5idXJnMRIwEAYDVQQKEwly
dWN0Zi5vcmcxDjAMBgNVBAsTBXJ1Y3RmMRUwEwYDVQQDEwxydWN0Zi5vcmcgQ0Ex
DzANBgNVBCkTBkRldlZQTjEkMCIGCSqGSIb3DQEJARYVZGltbW9ib3JnaXJAZ21h
aWwuY29tMB4XDTE2MDMyNTE5MjE1OFoXDTI2MDMyMzE5MjE1OFowgZ4xCzAJBgNV
BAYTAlJVMQswCQYDVQQIEwJSVTEWMBQGA1UEBxMNWWVrYXRlcmluYnVyZzESMBAG
A1UEChMJcnVjdGYub3JnMQ4wDAYDVQQLEwVydWN0ZjEPMA0GA1UEAxMGdGVhbTA0
MQ8wDQYDVQQpEwZEZXZWUE4xJDAiBgkqhkiG9w0BCQEWFWRpbW1vYm9yZ2lyQGdt
YWlsLmNvbTCCASIwDQYJKoZIhvcNAQEBBQADggEPADCCAQoCggEBAO/iSWlAC69W
3Gxmd1IspKXkVfLCU8oQr6pI8ziifwXk2Y/5wTJHy84MFQcicnGS/lCEOzxh9oOU
6U34JInWoyzJEt80BLPWAnJRCqtPG6wxzmwFfk/Lyz84oq3LG8z+dhwoLVhl2j+w
ZoeKqNyCBOV6pLAinJabrwFz7Pa4cSUhnuIlSytCDDueX1htWNzbI5g2Ff1mcSFU
YOmtKez98mds3Axi9MC/vNz2Zr6cRZ5rPCAgMcgIxvpwIyKU6cxqzQ+MzFKEPnmN
3b7e4/bzD9EGw4H+jlyEY0B3lMGb+VFZ0mG6/UeGZzs46ZrxzG1TrgHWURmtmNwQ
lkY0eRdi76cCAwEAAaOCAVswggFXMAkGA1UdEwQCMAAwLQYJYIZIAYb4QgENBCAW
HkVhc3ktUlNBIEdlbmVyYXRlZCBDZXJ0aWZpY2F0ZTAdBgNVHQ4EFgQUJ4cg8TcN
Fz7o3oRXTp5ljZRwj+swgdkGA1UdIwSB0TCBzoAUUXJax3WDozkuICDgcAkuC9g+
jCuhgaqkgacwgaQxCzAJBgNVBAYTAlJVMQswCQYDVQQIEwJSVTEWMBQGA1UEBxMN
WWVrYXRlcmluYnVyZzESMBAGA1UEChMJcnVjdGYub3JnMQ4wDAYDVQQLEwVydWN0
ZjEVMBMGA1UEAxMMcnVjdGYub3JnIENBMQ8wDQYDVQQpEwZEZXZWUE4xJDAiBgkq
hkiG9w0BCQEWFWRpbW1vYm9yZ2lyQGdtYWlsLmNvbYIJAM1FcPFq5/22MBMGA1Ud
JQQMMAoGCCsGAQUFBwMCMAsGA1UdDwQEAwIHgDANBgkqhkiG9w0BAQsFAAOCAQEA
OVAiezWsyfY7s4GAHyESd5jYOMcxG9HaGaWQLDcPexE5seOr+iRJ9PrmLEGXr4p/
0uMua14lawIRS4VAkj4+xGtOxLY8LHEuJlRpNvDubcb9nPv73oslnH8dIwf4UCA2
lJktQcHB6mMKFHFCGKcTmh0MoG9ikamrYQuklDAkVXuKc87difkgRb3xeWrRz8MO
7hbw2uXgDdxcUZ9GcC+MhauGk3i829xsQJOdsBTzxdEAEHDssK66y9nsxem6L6al
OJu79QaTpDYq3WKvMQfoIZtZHcu0Al7rvEDCXyjVGE7oU4fpKsuX4EFv3lO53tCE
7Arul85ypKt1dsopiEyVpw==
-----END CERTIFICATE-----
