Certificate:
    Data:
        Version: 3 (0x2)
        Serial Number: 9 (0x9)
    Signature Algorithm: sha256WithRSAEncryption
        Issuer: C=RU, ST=RU, L=Yekaterinburg, O=ructf.org, OU=ructf, CN=ructf.org CA/name=DevVPN/emailAddress=dimmoborgir@gmail.com
        Validity
            Not Before: Mar 25 19:21:59 2016 GMT
            Not After : Mar 23 19:21:59 2026 GMT
        Subject: C=RU, ST=RU, L=Yekaterinburg, O=ructf.org, OU=ructf, CN=team08/name=DevVPN/emailAddress=dimmoborgir@gmail.com
        Subject Public Key Info:
            Public Key Algorithm: rsaEncryption
                Public-Key: (2048 bit)
                Modulus:
                    00:e8:41:84:84:89:ad:4f:3c:f8:d1:77:6b:91:75:
                    00:5b:e3:12:92:5c:38:87:5a:0b:9e:05:42:5f:f6:
                    17:c1:53:78:39:ab:c6:b3:92:d5:a0:6c:76:0d:32:
                    9f:e2:d9:e1:7b:c9:fe:78:e9:4e:31:e0:12:b8:19:
                    30:28:53:14:be:aa:14:f5:d1:68:aa:b2:69:b8:a2:
                    f4:d8:b1:e2:18:c8:9c:0f:3d:28:01:6a:ef:db:54:
                    47:1f:4d:ed:b5:82:02:4d:f2:fa:35:30:00:c3:da:
                    26:6e:d6:24:bd:24:79:a0:12:85:79:a9:98:59:85:
                    ed:87:5e:dc:3c:25:5a:a3:5e:ce:21:57:eb:a9:44:
                    57:73:d9:b1:96:4c:d1:34:67:54:2d:c3:61:e7:14:
                    1d:21:1a:c4:10:bc:28:e7:d0:ce:8b:ba:cc:a9:1d:
                    57:ce:46:0a:1e:09:97:5f:d1:94:b7:ce:b0:84:d4:
                    47:66:7a:1e:a2:c3:33:0b:0e:61:0c:d3:7a:f5:e9:
                    ad:66:d2:43:c4:12:98:cb:85:b3:d5:b6:3a:1e:1f:
                    51:90:16:3c:3d:e8:01:24:d6:92:e8:5b:5f:26:3c:
                    95:40:5c:f1:b6:91:06:15:bb:12:9c:c8:dd:82:7e:
                    e5:34:f2:62:a2:7a:d5:e1:69:db:bc:06:e2:9e:f8:
                    14:fb
                Exponent: 65537 (0x10001)
        X509v3 extensions:
            X509v3 Basic Constraints: 
                CA:FALSE
            Netscape Comment: 
                Easy-RSA Generated Certificate
            X509v3 Subject Key Identifier: 
                06:E2:2A:8B:BB:2D:33:B9:F3:06:7E:40:FB:F1:DC:CE:3D:EA:95:28
            X509v3 Authority Key Identifier: 
                keyid:51:72:5A:C7:75:83:A3:39:2E:20:20:E0:70:09:2E:0B:D8:3E:8C:2B
                DirName:/C=RU/ST=RU/L=Yekaterinburg/O=ructf.org/OU=ructf/CN=ructf.org CA/name=DevVPN/emailAddress=dimmoborgir@gmail.com
                serial:CD:45:70:F1:6A:E7:FD:B6

            X509v3 Extended Key Usage: 
                TLS Web Client Authentication
            X509v3 Key Usage: 
                Digital Signature
    Signature Algorithm: sha256WithRSAEncryption
         a3:80:c1:c1:9b:fb:b0:e5:71:6c:a8:7b:fb:d1:81:7c:9b:4a:
         c1:28:6f:22:75:01:07:68:e5:f6:58:fb:6c:ce:a1:35:a1:0e:
         03:76:e7:de:03:78:bb:98:69:da:f0:54:87:e4:63:1a:7d:d4:
         27:00:0b:f4:16:de:9d:70:f6:52:2e:4c:52:e6:0e:a3:08:8c:
         84:3d:b9:2e:f4:3c:e9:ed:ba:92:e4:31:20:a0:3e:18:db:a0:
         53:eb:aa:78:92:01:8d:dc:8a:d3:eb:ad:78:5b:07:56:bc:b6:
         84:4e:b5:99:00:4e:ed:8c:aa:d8:52:5d:ce:28:83:02:28:16:
         8f:40:95:cc:76:e6:87:50:0a:bd:86:e7:e9:e2:8f:06:7c:86:
         5b:5a:0c:f3:d4:0a:a9:24:a0:41:ae:48:1f:1e:32:5b:ec:27:
         2a:be:b3:5a:e7:a5:9a:34:db:6c:c0:53:ba:84:6a:72:8a:c9:
         65:3c:bc:d1:fd:38:76:9e:ff:b8:9f:07:6a:19:0d:61:56:4b:
         aa:23:60:ee:64:6f:76:66:c2:a6:3d:e9:a2:8f:4b:77:8f:ef:
         8c:29:8a:20:63:0f:12:c6:30:d2:81:19:55:95:e7:f8:a1:13:
         84:42:21:70:83:44:49:53:f7:59:c9:fe:f3:24:34:ba:28:71:
         db:df:ad:60
-----BEGIN CERTIFICATE-----
MIIFHDCCBASgAwIBAgIBCTANBgkqhkiG9w0BAQsFADCBpDELMAkGA1UEBhMCUlUx
CzAJBgNVBAgTAlJVMRYwFAYDVQQHEw1ZZWthdGVyaW5idXJnMRIwEAYDVQQKEwly
dWN0Zi5vcmcxDjAMBgNVBAsTBXJ1Y3RmMRUwEwYDVQQDEwxydWN0Zi5vcmcgQ0Ex
DzANBgNVBCkTBkRldlZQTjEkMCIGCSqGSIb3DQEJARYVZGltbW9ib3JnaXJAZ21h
aWwuY29tMB4XDTE2MDMyNTE5MjE1OVoXDTI2MDMyMzE5MjE1OVowgZ4xCzAJBgNV
BAYTAlJVMQswCQYDVQQIEwJSVTEWMBQGA1UEBxMNWWVrYXRlcmluYnVyZzESMBAG
A1UEChMJcnVjdGYub3JnMQ4wDAYDVQQLEwVydWN0ZjEPMA0GA1UEAxMGdGVhbTA4
MQ8wDQYDVQQpEwZEZXZWUE4xJDAiBgkqhkiG9w0BCQEWFWRpbW1vYm9yZ2lyQGdt
YWlsLmNvbTCCASIwDQYJKoZIhvcNAQEBBQADggEPADCCAQoCggEBAOhBhISJrU88
+NF3a5F1AFvjEpJcOIdaC54FQl/2F8FTeDmrxrOS1aBsdg0yn+LZ4XvJ/njpTjHg
ErgZMChTFL6qFPXRaKqyabii9Nix4hjInA89KAFq79tURx9N7bWCAk3y+jUwAMPa
Jm7WJL0keaAShXmpmFmF7Yde3DwlWqNeziFX66lEV3PZsZZM0TRnVC3DYecUHSEa
xBC8KOfQzou6zKkdV85GCh4Jl1/RlLfOsITUR2Z6HqLDMwsOYQzTevXprWbSQ8QS
mMuFs9W2Oh4fUZAWPD3oASTWkuhbXyY8lUBc8baRBhW7EpzI3YJ+5TTyYqJ61eFp
27wG4p74FPsCAwEAAaOCAVswggFXMAkGA1UdEwQCMAAwLQYJYIZIAYb4QgENBCAW
HkVhc3ktUlNBIEdlbmVyYXRlZCBDZXJ0aWZpY2F0ZTAdBgNVHQ4EFgQUBuIqi7st
M7nzBn5A+/Hczj3qlSgwgdkGA1UdIwSB0TCBzoAUUXJax3WDozkuICDgcAkuC9g+
jCuhgaqkgacwgaQxCzAJBgNVBAYTAlJVMQswCQYDVQQIEwJSVTEWMBQGA1UEBxMN
WWVrYXRlcmluYnVyZzESMBAGA1UEChMJcnVjdGYub3JnMQ4wDAYDVQQLEwVydWN0
ZjEVMBMGA1UEAxMMcnVjdGYub3JnIENBMQ8wDQYDVQQpEwZEZXZWUE4xJDAiBgkq
hkiG9w0BCQEWFWRpbW1vYm9yZ2lyQGdtYWlsLmNvbYIJAM1FcPFq5/22MBMGA1Ud
JQQMMAoGCCsGAQUFBwMCMAsGA1UdDwQEAwIHgDANBgkqhkiG9w0BAQsFAAOCAQEA
o4DBwZv7sOVxbKh7+9GBfJtKwShvInUBB2jl9lj7bM6hNaEOA3bn3gN4u5hp2vBU
h+RjGn3UJwAL9BbenXD2Ui5MUuYOowiMhD25LvQ86e26kuQxIKA+GNugU+uqeJIB
jdyK0+uteFsHVry2hE61mQBO7Yyq2FJdziiDAigWj0CVzHbmh1AKvYbn6eKPBnyG
W1oM89QKqSSgQa5IHx4yW+wnKr6zWuelmjTbbMBTuoRqcorJZTy80f04dp7/uJ8H
ahkNYVZLqiNg7mRvdmbCpj3poo9Ld4/vjCmKIGMPEsYw0oEZVZXn+KEThEIhcINE
SVP3Wcn+8yQ0uihx29+tYA==
-----END CERTIFICATE-----
