Certificate:
    Data:
        Version: 3 (0x2)
        Serial Number: 12 (0xc)
    Signature Algorithm: sha256WithRSAEncryption
        Issuer: C=RU, ST=RU, L=Yekaterinburg, O=ructf.org, OU=ructf, CN=ructf.org CA/name=DevVPN/emailAddress=dimmoborgir@gmail.com
        Validity
            Not Before: Mar 25 19:21:59 2016 GMT
            Not After : Mar 23 19:21:59 2026 GMT
        Subject: C=RU, ST=RU, L=Yekaterinburg, O=ructf.org, OU=ructf, CN=team11/name=DevVPN/emailAddress=dimmoborgir@gmail.com
        Subject Public Key Info:
            Public Key Algorithm: rsaEncryption
                Public-Key: (2048 bit)
                Modulus:
                    00:db:29:2c:cf:e5:2b:96:7c:d7:15:f9:87:d7:07:
                    32:f5:fc:a4:7d:5e:01:b7:76:ee:d6:40:10:e7:82:
                    d0:a2:57:7a:f9:7b:3a:97:3d:88:f9:da:7f:75:4d:
                    06:e8:f9:26:f8:9d:da:97:71:e1:ca:82:51:0b:95:
                    49:6f:fc:49:4f:c2:3c:dd:2a:95:29:84:53:29:7d:
                    df:15:1e:17:38:e2:65:0f:e2:bd:47:98:b5:5b:05:
                    57:59:c7:b9:da:4e:0a:ea:46:41:5a:d0:ba:fe:a5:
                    0d:65:4e:ff:80:5f:15:66:d1:ba:20:d0:f7:e1:32:
                    0f:5e:2b:3d:b3:cc:73:be:0e:6a:8a:c5:2c:db:e5:
                    73:d0:f1:48:ac:94:da:24:6e:a0:81:75:b4:d6:73:
                    b2:b5:c1:40:fc:f8:a9:5a:6e:f7:37:4d:b9:95:09:
                    d3:9b:22:c1:3c:de:1a:27:1e:fe:af:2e:5f:66:a9:
                    e3:aa:f3:c6:54:f1:12:22:57:3c:c7:95:3d:de:59:
                    fe:06:08:9d:b6:6d:64:39:bc:53:19:b8:d9:10:1c:
                    e7:a7:9f:2e:05:74:5e:2e:10:d2:58:0b:2e:19:26:
                    26:27:09:dd:96:c2:15:e9:1b:bc:86:6f:bc:87:04:
                    86:d9:46:b6:4b:7c:5c:eb:b1:b7:ae:2f:56:38:8a:
                    10:11
                Exponent: 65537 (0x10001)
        X509v3 extensions:
            X509v3 Basic Constraints: 
                CA:FALSE
            Netscape Comment: 
                Easy-RSA Generated Certificate
            X509v3 Subject Key Identifier: 
                AA:E8:A7:96:33:1B:39:A8:8B:A9:7D:F7:41:9D:F8:7E:58:76:CA:7B
            X509v3 Authority Key Identifier: 
                keyid:51:72:5A:C7:75:83:A3:39:2E:20:20:E0:70:09:2E:0B:D8:3E:8C:2B
                DirName:/C=RU/ST=RU/L=Yekaterinburg/O=ructf.org/OU=ructf/CN=ructf.org CA/name=DevVPN/emailAddress=dimmoborgir@gmail.com
                serial:CD:45:70:F1:6A:E7:FD:B6

            X509v3 Extended Key Usage: 
                TLS Web Client Authentication
            X509v3 Key Usage: 
                Digital Signature
    Signature Algorithm: sha256WithRSAEncryption
         29:e8:41:82:63:29:e2:97:6f:7c:9a:b8:14:fe:e1:ac:d7:3e:
         3b:a5:8f:f5:01:a5:93:09:60:67:bc:d8:a2:92:55:00:b4:18:
         f6:a3:26:21:7e:46:d3:cc:01:1f:32:13:de:4d:52:ac:b4:1c:
         c5:05:5f:96:a4:06:db:ab:4d:54:b9:05:6a:9b:99:d7:69:95:
         51:4e:06:a1:81:00:6e:8f:c1:f4:70:ee:3e:cd:ba:08:bb:8d:
         7f:28:95:8a:64:2b:bf:dc:0e:a0:47:98:e4:37:5d:16:e1:25:
         74:8c:6e:25:c2:5f:e8:3f:67:fc:59:ac:3f:47:6a:68:47:c4:
         68:5e:ab:48:1b:f6:74:47:34:b9:27:bb:c1:9d:d2:a6:0b:46:
         33:67:e8:08:f4:96:29:03:85:45:11:8a:05:1f:1b:77:66:58:
         ae:cc:8b:41:09:88:0f:ea:2f:db:12:b1:13:85:29:a8:9e:43:
         b2:d3:4a:89:6f:ef:3f:12:f7:c5:63:66:83:37:39:7c:7a:bd:
         4d:5d:38:ed:55:3a:1f:1a:50:70:f0:0a:07:f1:f5:36:6f:dd:
         4f:07:0a:0c:c4:94:37:d8:85:ee:8c:e7:43:5f:b4:a8:4c:6a:
         4d:30:47:1c:7c:16:c6:e4:59:a2:cd:8d:20:80:50:1d:1e:e3:
         f7:b8:9d:25
-----BEGIN CERTIFICATE-----
MIIFHDCCBASgAwIBAgIBDDANBgkqhkiG9w0BAQsFADCBpDELMAkGA1UEBhMCUlUx
CzAJBgNVBAgTAlJVMRYwFAYDVQQHEw1ZZWthdGVyaW5idXJnMRIwEAYDVQQKEwly
dWN0Zi5vcmcxDjAMBgNVBAsTBXJ1Y3RmMRUwEwYDVQQDEwxydWN0Zi5vcmcgQ0Ex
DzANBgNVBCkTBkRldlZQTjEkMCIGCSqGSIb3DQEJARYVZGltbW9ib3JnaXJAZ21h
aWwuY29tMB4XDTE2MDMyNTE5MjE1OVoXDTI2MDMyMzE5MjE1OVowgZ4xCzAJBgNV
BAYTAlJVMQswCQYDVQQIEwJSVTEWMBQGA1UEBxMNWWVrYXRlcmluYnVyZzESMBAG
A1UEChMJcnVjdGYub3JnMQ4wDAYDVQQLEwVydWN0ZjEPMA0GA1UEAxMGdGVhbTEx
MQ8wDQYDVQQpEwZEZXZWUE4xJDAiBgkqhkiG9w0BCQEWFWRpbW1vYm9yZ2lyQGdt
YWlsLmNvbTCCASIwDQYJKoZIhvcNAQEBBQADggEPADCCAQoCggEBANspLM/lK5Z8
1xX5h9cHMvX8pH1eAbd27tZAEOeC0KJXevl7Opc9iPnaf3VNBuj5Jvid2pdx4cqC
UQuVSW/8SU/CPN0qlSmEUyl93xUeFzjiZQ/ivUeYtVsFV1nHudpOCupGQVrQuv6l
DWVO/4BfFWbRuiDQ9+EyD14rPbPMc74OaorFLNvlc9DxSKyU2iRuoIF1tNZzsrXB
QPz4qVpu9zdNuZUJ05siwTzeGice/q8uX2ap46rzxlTxEiJXPMeVPd5Z/gYInbZt
ZDm8Uxm42RAc56efLgV0Xi4Q0lgLLhkmJicJ3ZbCFekbvIZvvIcEhtlGtkt8XOux
t64vVjiKEBECAwEAAaOCAVswggFXMAkGA1UdEwQCMAAwLQYJYIZIAYb4QgENBCAW
HkVhc3ktUlNBIEdlbmVyYXRlZCBDZXJ0aWZpY2F0ZTAdBgNVHQ4EFgQUquinljMb
OaiLqX33QZ34flh2ynswgdkGA1UdIwSB0TCBzoAUUXJax3WDozkuICDgcAkuC9g+
jCuhgaqkgacwgaQxCzAJBgNVBAYTAlJVMQswCQYDVQQIEwJSVTEWMBQGA1UEBxMN
WWVrYXRlcmluYnVyZzESMBAGA1UEChMJcnVjdGYub3JnMQ4wDAYDVQQLEwVydWN0
ZjEVMBMGA1UEAxMMcnVjdGYub3JnIENBMQ8wDQYDVQQpEwZEZXZWUE4xJDAiBgkq
hkiG9w0BCQEWFWRpbW1vYm9yZ2lyQGdtYWlsLmNvbYIJAM1FcPFq5/22MBMGA1Ud
JQQMMAoGCCsGAQUFBwMCMAsGA1UdDwQEAwIHgDANBgkqhkiG9w0BAQsFAAOCAQEA
KehBgmMp4pdvfJq4FP7hrNc+O6WP9QGlkwlgZ7zYopJVALQY9qMmIX5G08wBHzIT
3k1SrLQcxQVflqQG26tNVLkFapuZ12mVUU4GoYEAbo/B9HDuPs26CLuNfyiVimQr
v9wOoEeY5DddFuEldIxuJcJf6D9n/FmsP0dqaEfEaF6rSBv2dEc0uSe7wZ3SpgtG
M2foCPSWKQOFRRGKBR8bd2ZYrsyLQQmID+ov2xKxE4UpqJ5DstNKiW/vPxL3xWNm
gzc5fHq9TV047VU6HxpQcPAKB/H1Nm/dTwcKDMSUN9iF7oznQ1+0qExqTTBHHHwW
xuRZos2NIIBQHR7j97idJQ==
-----END CERTIFICATE-----
