Certificate:
    Data:
        Version: 3 (0x2)
        Serial Number: 18 (0x12)
    Signature Algorithm: sha256WithRSAEncryption
        Issuer: C=RU, ST=RU, L=Yekaterinburg, O=ructf.org, OU=ructf, CN=ructf.org CA/name=DevVPN/emailAddress=dimmoborgir@gmail.com
        Validity
            Not Before: Mar 25 19:22:01 2016 GMT
            Not After : Mar 23 19:22:01 2026 GMT
        Subject: C=RU, ST=RU, L=Yekaterinburg, O=ructf.org, OU=ructf, CN=team17/name=DevVPN/emailAddress=dimmoborgir@gmail.com
        Subject Public Key Info:
            Public Key Algorithm: rsaEncryption
                Public-Key: (2048 bit)
                Modulus:
                    00:c4:cd:7d:36:94:48:53:c3:3c:04:21:d0:31:38:
                    5f:fa:13:c7:18:6a:65:79:38:d5:dd:9a:62:7c:ef:
                    68:f1:d7:30:02:2b:f3:0f:49:f9:d1:cc:44:7d:f2:
                    76:0b:4e:e7:0d:8e:8b:e8:cd:4f:34:da:44:62:b0:
                    a4:27:b6:6b:01:42:60:66:8a:04:da:0a:2d:bb:92:
                    1f:57:2d:31:b0:72:b0:47:39:5e:3e:1d:31:c3:06:
                    09:c7:93:8a:e4:c8:75:10:81:c7:df:2f:f3:c8:70:
                    e5:ee:12:1a:d6:88:e1:56:86:4f:9f:78:83:fb:45:
                    f9:0b:a5:89:31:42:00:91:54:d8:34:1b:ec:cf:3e:
                    ec:14:31:c9:f2:26:b5:1b:28:30:77:5a:51:2f:66:
                    2d:95:3a:15:84:c8:4c:1c:b8:c6:80:4d:9a:b2:ed:
                    cc:05:5a:c6:07:42:38:3b:76:03:8a:06:27:5a:ab:
                    9e:04:71:f3:60:dd:df:cb:b8:97:88:79:14:5e:18:
                    55:15:34:be:f5:5b:32:34:c6:2f:9a:54:05:59:43:
                    00:34:56:59:5d:39:0e:ec:e8:67:ff:8b:06:d7:f0:
                    4a:04:3c:d4:88:f6:30:30:cf:06:a3:b9:07:2d:69:
                    fb:68:7b:44:61:9b:06:d4:5a:39:7c:73:68:c5:5d:
                    ed:eb
                Exponent: 65537 (0x10001)
        X509v3 extensions:
            X509v3 Basic Constraints: 
                CA:FALSE
            Netscape Comment: 
                Easy-RSA Generated Certificate
            X509v3 Subject Key Identifier: 
                7D:03:CC:86:A6:82:EC:86:20:88:09:DB:33:0B:6B:53:75:7D:54:82
            X509v3 Authority Key Identifier: 
                keyid:51:72:5A:C7:75:83:A3:39:2E:20:20:E0:70:09:2E:0B:D8:3E:8C:2B
                DirName:/C=RU/ST=RU/L=Yekaterinburg/O=ructf.org/OU=ructf/CN=ructf.org CA/name=DevVPN/emailAddress=dimmoborgir@gmail.com
                serial:CD:45:70:F1:6A:E7:FD:B6

            X509v3 Extended Key Usage: 
                TLS Web Client Authentication
            X509v3 Key Usage: 
                Digital Signature
    Signature Algorithm: sha256WithRSAEncryption
         9a:57:df:09:0c:5a:d8:f7:b1:ed:9b:4e:db:ff:03:b8:94:f9:
         86:75:08:ec:95:d1:7f:00:b6:59:da:7d:05:54:a1:94:de:a8:
         ab:f6:1b:49:8b:04:d7:b7:7c:f6:59:ee:38:8a:3c:c1:ed:b5:
         ca:db:fe:83:9a:d0:56:a7:97:4a:66:e9:bd:6f:46:82:bf:6d:
         5c:c2:f9:4c:6b:48:fe:65:eb:29:b0:f8:6d:7f:15:c8:2a:cf:
         09:32:4c:4d:4a:52:2e:e2:c5:b9:ee:48:6e:11:9c:48:86:92:
         ba:36:7e:c3:00:61:fa:4b:c5:d1:6c:6a:44:74:99:dd:32:53:
         96:56:4f:34:a6:59:db:0f:dd:65:0e:72:e2:cf:f1:71:58:90:
         22:11:d0:ca:bf:9f:aa:85:c8:06:04:d9:d1:a6:11:62:b6:34:
         79:87:80:55:6f:1a:5f:df:9c:34:16:80:97:2a:46:1a:03:03:
         f8:6b:3c:42:c8:2d:36:e9:45:b0:4e:53:ab:6e:97:f1:2c:0c:
         97:bc:a7:94:8c:d0:d9:5d:7c:47:71:c7:f8:bb:63:a9:c9:17:
         b5:ab:e1:2e:aa:43:0d:de:40:ba:be:e8:fe:97:64:56:68:ed:
         fc:52:92:7c:c5:db:bf:64:d1:f9:a9:d2:c1:20:99:67:9a:58:
         37:69:e4:fa
-----BEGIN CERTIFICATE-----
MIIFHDCCBASgAwIBAgIBEjANBgkqhkiG9w0BAQsFADCBpDELMAkGA1UEBhMCUlUx
CzAJBgNVBAgTAlJVMRYwFAYDVQQHEw1ZZWthdGVyaW5idXJnMRIwEAYDVQQKEwly
dWN0Zi5vcmcxDjAMBgNVBAsTBXJ1Y3RmMRUwEwYDVQQDEwxydWN0Zi5vcmcgQ0Ex
DzANBgNVBCkTBkRldlZQTjEkMCIGCSqGSIb3DQEJARYVZGltbW9ib3JnaXJAZ21h
aWwuY29tMB4XDTE2MDMyNTE5MjIwMVoXDTI2MDMyMzE5MjIwMVowgZ4xCzAJBgNV
BAYTAlJVMQswCQYDVQQIEwJSVTEWMBQGA1UEBxMNWWVrYXRlcmluYnVyZzESMBAG
A1UEChMJcnVjdGYub3JnMQ4wDAYDVQQLEwVydWN0ZjEPMA0GA1UEAxMGdGVhbTE3
MQ8wDQYDVQQpEwZEZXZWUE4xJDAiBgkqhkiG9w0BCQEWFWRpbW1vYm9yZ2lyQGdt
YWlsLmNvbTCCASIwDQYJKoZIhvcNAQEBBQADggEPADCCAQoCggEBAMTNfTaUSFPD
PAQh0DE4X/oTxxhqZXk41d2aYnzvaPHXMAIr8w9J+dHMRH3ydgtO5w2Oi+jNTzTa
RGKwpCe2awFCYGaKBNoKLbuSH1ctMbBysEc5Xj4dMcMGCceTiuTIdRCBx98v88hw
5e4SGtaI4VaGT594g/tF+QuliTFCAJFU2DQb7M8+7BQxyfImtRsoMHdaUS9mLZU6
FYTITBy4xoBNmrLtzAVaxgdCODt2A4oGJ1qrngRx82Dd38u4l4h5FF4YVRU0vvVb
MjTGL5pUBVlDADRWWV05DuzoZ/+LBtfwSgQ81Ij2MDDPBqO5By1p+2h7RGGbBtRa
OXxzaMVd7esCAwEAAaOCAVswggFXMAkGA1UdEwQCMAAwLQYJYIZIAYb4QgENBCAW
HkVhc3ktUlNBIEdlbmVyYXRlZCBDZXJ0aWZpY2F0ZTAdBgNVHQ4EFgQUfQPMhqaC
7IYgiAnbMwtrU3V9VIIwgdkGA1UdIwSB0TCBzoAUUXJax3WDozkuICDgcAkuC9g+
jCuhgaqkgacwgaQxCzAJBgNVBAYTAlJVMQswCQYDVQQIEwJSVTEWMBQGA1UEBxMN
WWVrYXRlcmluYnVyZzESMBAGA1UEChMJcnVjdGYub3JnMQ4wDAYDVQQLEwVydWN0
ZjEVMBMGA1UEAxMMcnVjdGYub3JnIENBMQ8wDQYDVQQpEwZEZXZWUE4xJDAiBgkq
hkiG9w0BCQEWFWRpbW1vYm9yZ2lyQGdtYWlsLmNvbYIJAM1FcPFq5/22MBMGA1Ud
JQQMMAoGCCsGAQUFBwMCMAsGA1UdDwQEAwIHgDANBgkqhkiG9w0BAQsFAAOCAQEA
mlffCQxa2Pex7ZtO2/8DuJT5hnUI7JXRfwC2Wdp9BVShlN6oq/YbSYsE17d89lnu
OIo8we21ytv+g5rQVqeXSmbpvW9Ggr9tXML5TGtI/mXrKbD4bX8VyCrPCTJMTUpS
LuLFue5IbhGcSIaSujZ+wwBh+kvF0WxqRHSZ3TJTllZPNKZZ2w/dZQ5y4s/xcViQ
IhHQyr+fqoXIBgTZ0aYRYrY0eYeAVW8aX9+cNBaAlypGGgMD+Gs8QsgtNulFsE5T
q26X8SwMl7ynlIzQ2V18R3HH+LtjqckXtavhLqpDDd5Aur7o/pdkVmjt/FKSfMXb
v2TR+anSwSCZZ5pYN2nk+g==
-----END CERTIFICATE-----
