Certificate:
    Data:
        Version: 3 (0x2)
        Serial Number: 19 (0x13)
    Signature Algorithm: sha256WithRSAEncryption
        Issuer: C=RU, ST=RU, L=Yekaterinburg, O=ructf.org, OU=ructf, CN=ructf.org CA/name=DevVPN/emailAddress=dimmoborgir@gmail.com
        Validity
            Not Before: Mar 25 19:22:02 2016 GMT
            Not After : Mar 23 19:22:02 2026 GMT
        Subject: C=RU, ST=RU, L=Yekaterinburg, O=ructf.org, OU=ructf, CN=team18/name=DevVPN/emailAddress=dimmoborgir@gmail.com
        Subject Public Key Info:
            Public Key Algorithm: rsaEncryption
                Public-Key: (2048 bit)
                Modulus:
                    00:cc:55:ad:59:a6:48:2f:8e:1d:bc:d9:6e:7c:e3:
                    33:f7:ba:b8:9e:05:1e:e4:6a:1c:96:a1:00:f2:fa:
                    0c:09:c1:2f:b6:8b:9a:52:b6:3b:72:10:ea:4c:c9:
                    65:e5:5c:a3:50:96:57:16:c2:d8:82:00:49:62:ea:
                    65:db:38:ce:9d:f5:0f:a0:ef:dd:43:07:e6:4b:f5:
                    74:e9:a7:1b:a2:3d:99:b4:ca:f3:ee:6a:19:33:d6:
                    13:08:3d:3d:2f:1d:1d:c4:83:d0:35:c8:0a:7c:58:
                    25:42:d5:17:13:1e:ca:53:dd:bb:8b:ac:6d:e6:98:
                    d2:28:84:71:04:a9:dc:bd:3d:7b:43:a0:c8:c6:c8:
                    70:a7:05:99:a3:2b:c3:3d:c9:72:51:09:14:57:a4:
                    f4:c0:2a:c1:61:f8:3f:3f:38:ba:a0:33:4b:6f:15:
                    88:50:e8:c9:b1:85:d8:dd:e4:2a:48:0b:4a:8f:98:
                    d9:d7:58:75:bf:78:72:58:6a:64:0e:06:6a:0f:60:
                    4a:c7:1a:38:ce:b4:97:9b:93:92:9b:3b:c3:bc:e9:
                    41:fc:9d:e1:af:34:3b:2e:99:66:c7:77:a2:32:8a:
                    d3:9f:10:9b:1e:9b:66:7a:37:8e:1e:47:df:02:ee:
                    0f:4b:4d:6f:10:be:d5:81:3d:a7:5b:92:27:85:da:
                    18:ab
                Exponent: 65537 (0x10001)
        X509v3 extensions:
            X509v3 Basic Constraints: 
                CA:FALSE
            Netscape Comment: 
                Easy-RSA Generated Certificate
            X509v3 Subject Key Identifier: 
                05:DD:B1:E1:B2:A1:D1:DD:64:AE:7F:90:5C:35:4D:73:CE:5E:C8:B8
            X509v3 Authority Key Identifier: 
                keyid:51:72:5A:C7:75:83:A3:39:2E:20:20:E0:70:09:2E:0B:D8:3E:8C:2B
                DirName:/C=RU/ST=RU/L=Yekaterinburg/O=ructf.org/OU=ructf/CN=ructf.org CA/name=DevVPN/emailAddress=dimmoborgir@gmail.com
                serial:CD:45:70:F1:6A:E7:FD:B6

            X509v3 Extended Key Usage: 
                TLS Web Client Authentication
            X509v3 Key Usage: 
                Digital Signature
    Signature Algorithm: sha256WithRSAEncryption
         57:59:f7:88:ef:d5:c9:2b:6e:65:ba:13:96:b7:44:e7:e7:83:
         f8:c8:7b:34:7f:02:d6:19:a7:d1:8c:13:7d:df:7e:1c:00:3b:
         3e:62:d1:81:ec:8a:96:ff:15:db:c3:c5:94:0d:ed:61:0b:82:
         ef:2b:2c:6c:6d:d6:e8:75:0e:38:99:ca:1e:90:8b:6e:c3:35:
         48:f2:0a:b7:4c:1c:93:c3:6e:9d:26:78:d9:b4:3b:9d:cb:8f:
         3b:14:f6:be:40:ca:5c:7f:47:4b:0d:ba:4a:9d:50:4e:18:09:
         fd:39:7c:be:cf:fe:3a:7e:53:1d:02:cd:83:9e:36:d0:ce:ec:
         92:b2:3f:35:a3:98:3f:26:56:b4:43:6b:1f:34:58:f1:f8:5e:
         77:0c:13:5c:01:e3:6f:07:9e:7b:09:c5:ca:18:69:f0:e1:3e:
         f5:89:0d:79:48:af:f9:92:4e:92:e3:18:51:89:d4:d6:59:c5:
         62:70:f3:f6:2b:3a:e6:7d:0b:ac:76:81:fe:1b:8e:73:11:92:
         9b:07:44:6d:63:3f:14:60:c0:32:4e:56:64:bb:26:27:bf:3f:
         21:f1:04:ff:7e:99:f7:dd:4c:82:55:5e:a0:27:fe:43:20:a0:
         c9:a5:5d:74:6a:c5:14:ee:11:0e:3b:e8:9a:33:32:b7:68:02:
         0b:e1:67:80
-----BEGIN CERTIFICATE-----
MIIFHDCCBASgAwIBAgIBEzANBgkqhkiG9w0BAQsFADCBpDELMAkGA1UEBhMCUlUx
CzAJBgNVBAgTAlJVMRYwFAYDVQQHEw1ZZWthdGVyaW5idXJnMRIwEAYDVQQKEwly
dWN0Zi5vcmcxDjAMBgNVBAsTBXJ1Y3RmMRUwEwYDVQQDEwxydWN0Zi5vcmcgQ0Ex
DzANBgNVBCkTBkRldlZQTjEkMCIGCSqGSIb3DQEJARYVZGltbW9ib3JnaXJAZ21h
aWwuY29tMB4XDTE2MDMyNTE5MjIwMloXDTI2MDMyMzE5MjIwMlowgZ4xCzAJBgNV
BAYTAlJVMQswCQYDVQQIEwJSVTEWMBQGA1UEBxMNWWVrYXRlcmluYnVyZzESMBAG
A1UEChMJcnVjdGYub3JnMQ4wDAYDVQQLEwVydWN0ZjEPMA0GA1UEAxMGdGVhbTE4
MQ8wDQYDVQQpEwZEZXZWUE4xJDAiBgkqhkiG9w0BCQEWFWRpbW1vYm9yZ2lyQGdt
YWlsLmNvbTCCASIwDQYJKoZIhvcNAQEBBQADggEPADCCAQoCggEBAMxVrVmmSC+O
HbzZbnzjM/e6uJ4FHuRqHJahAPL6DAnBL7aLmlK2O3IQ6kzJZeVco1CWVxbC2IIA
SWLqZds4zp31D6Dv3UMH5kv1dOmnG6I9mbTK8+5qGTPWEwg9PS8dHcSD0DXICnxY
JULVFxMeylPdu4usbeaY0iiEcQSp3L09e0OgyMbIcKcFmaMrwz3JclEJFFek9MAq
wWH4Pz84uqAzS28ViFDoybGF2N3kKkgLSo+Y2ddYdb94clhqZA4Gag9gSscaOM60
l5uTkps7w7zpQfyd4a80Oy6ZZsd3ojKK058Qmx6bZno3jh5H3wLuD0tNbxC+1YE9
p1uSJ4XaGKsCAwEAAaOCAVswggFXMAkGA1UdEwQCMAAwLQYJYIZIAYb4QgENBCAW
HkVhc3ktUlNBIEdlbmVyYXRlZCBDZXJ0aWZpY2F0ZTAdBgNVHQ4EFgQUBd2x4bKh
0d1krn+QXDVNc85eyLgwgdkGA1UdIwSB0TCBzoAUUXJax3WDozkuICDgcAkuC9g+
jCuhgaqkgacwgaQxCzAJBgNVBAYTAlJVMQswCQYDVQQIEwJSVTEWMBQGA1UEBxMN
WWVrYXRlcmluYnVyZzESMBAGA1UEChMJcnVjdGYub3JnMQ4wDAYDVQQLEwVydWN0
ZjEVMBMGA1UEAxMMcnVjdGYub3JnIENBMQ8wDQYDVQQpEwZEZXZWUE4xJDAiBgkq
hkiG9w0BCQEWFWRpbW1vYm9yZ2lyQGdtYWlsLmNvbYIJAM1FcPFq5/22MBMGA1Ud
JQQMMAoGCCsGAQUFBwMCMAsGA1UdDwQEAwIHgDANBgkqhkiG9w0BAQsFAAOCAQEA
V1n3iO/VyStuZboTlrdE5+eD+Mh7NH8C1hmn0YwTfd9+HAA7PmLRgeyKlv8V28PF
lA3tYQuC7yssbG3W6HUOOJnKHpCLbsM1SPIKt0wck8NunSZ42bQ7ncuPOxT2vkDK
XH9HSw26Sp1QThgJ/Tl8vs/+On5THQLNg5420M7skrI/NaOYPyZWtENrHzRY8fhe
dwwTXAHjbweeewnFyhhp8OE+9YkNeUiv+ZJOkuMYUYnU1lnFYnDz9is65n0LrHaB
/huOcxGSmwdEbWM/FGDAMk5WZLsmJ78/IfEE/36Z991MglVeoCf+QyCgyaVddGrF
FO4RDjvomjMyt2gCC+FngA==
-----END CERTIFICATE-----
