Certificate:
    Data:
        Version: 3 (0x2)
        Serial Number: 22 (0x16)
    Signature Algorithm: sha256WithRSAEncryption
        Issuer: C=RU, ST=RU, L=Yekaterinburg, O=ructf.org, OU=ructf, CN=ructf.org CA/name=DevVPN/emailAddress=dimmoborgir@gmail.com
        Validity
            Not Before: Mar 25 19:22:03 2016 GMT
            Not After : Mar 23 19:22:03 2026 GMT
        Subject: C=RU, ST=RU, L=Yekaterinburg, O=ructf.org, OU=ructf, CN=team21/name=DevVPN/emailAddress=dimmoborgir@gmail.com
        Subject Public Key Info:
            Public Key Algorithm: rsaEncryption
                Public-Key: (2048 bit)
                Modulus:
                    00:aa:5d:87:47:3d:4f:e1:a3:c1:c0:b7:d5:ff:83:
                    59:10:17:70:aa:cf:32:6e:ec:a8:3e:8d:19:25:5a:
                    81:d3:40:81:2b:17:1c:42:f5:e5:0f:07:9a:d0:2a:
                    41:3a:21:20:1f:fc:11:b0:c1:6e:97:73:a7:35:1e:
                    5b:54:13:c5:99:19:12:3a:13:29:e2:c4:e5:ac:32:
                    38:2f:be:5a:73:d4:15:52:25:ee:03:58:20:48:d6:
                    08:58:6f:ba:16:c3:5d:68:b5:d8:16:17:66:38:50:
                    8b:92:d2:5d:7d:49:a9:7f:e1:0e:6f:b1:10:8f:39:
                    cf:a3:80:11:04:36:d5:61:13:a0:6c:9d:94:54:5c:
                    0d:1a:25:70:e3:64:6c:cb:5a:7f:b6:6a:bc:5b:58:
                    21:8d:b2:f6:c0:12:41:00:2a:65:a4:4a:11:d3:e8:
                    75:6e:ed:ae:6a:7d:ec:59:2c:ed:56:c1:17:0c:3b:
                    6e:6f:37:a0:81:b6:22:43:37:40:6f:32:a9:dd:68:
                    40:fc:d7:54:8f:f8:68:9d:ad:ed:e6:79:c7:ae:77:
                    58:c2:a1:66:4f:d9:91:1c:e9:a2:e8:5c:43:48:0c:
                    52:4c:78:a4:fd:c4:76:3f:81:08:51:d6:e0:e6:7f:
                    81:68:a9:36:75:48:c1:c4:99:f7:49:24:bd:1d:7f:
                    47:a9
                Exponent: 65537 (0x10001)
        X509v3 extensions:
            X509v3 Basic Constraints: 
                CA:FALSE
            Netscape Comment: 
                Easy-RSA Generated Certificate
            X509v3 Subject Key Identifier: 
                11:49:96:B5:92:12:C9:29:FF:9B:BF:99:86:A4:B0:56:32:84:70:1A
            X509v3 Authority Key Identifier: 
                keyid:51:72:5A:C7:75:83:A3:39:2E:20:20:E0:70:09:2E:0B:D8:3E:8C:2B
                DirName:/C=RU/ST=RU/L=Yekaterinburg/O=ructf.org/OU=ructf/CN=ructf.org CA/name=DevVPN/emailAddress=dimmoborgir@gmail.com
                serial:CD:45:70:F1:6A:E7:FD:B6

            X509v3 Extended Key Usage: 
                TLS Web Client Authentication
            X509v3 Key Usage: 
                Digital Signature
    Signature Algorithm: sha256WithRSAEncryption
         59:ea:77:99:97:e7:ed:5b:53:1b:36:11:74:64:3f:64:76:a4:
         ca:db:91:d2:60:77:df:99:d6:5e:fc:ee:7a:24:48:d4:a8:d8:
         09:5c:7a:e3:66:32:3d:80:05:21:4b:e4:c2:cc:34:73:6f:d8:
         53:e0:f9:c5:22:8e:fa:55:7a:1f:7e:8c:42:1e:55:9a:51:97:
         d6:77:75:61:30:53:9d:37:9a:f4:15:b4:93:0f:48:ec:19:3c:
         ca:e9:39:3a:83:a1:9b:81:26:e9:8b:39:9f:ce:1a:d3:bb:a3:
         76:ff:d3:c4:68:c5:75:b6:6f:c5:31:26:02:2c:a8:fd:2b:b0:
         35:3e:f2:52:22:56:de:2c:9f:b1:96:57:78:b3:cd:df:17:e1:
         94:dd:f7:9a:44:f6:d3:3d:5a:a0:09:01:51:9c:61:c5:62:81:
         ef:62:70:78:8f:10:3a:b4:2f:0a:4d:26:fd:d4:6b:ab:e9:b6:
         46:c5:e2:0c:6c:a8:09:7e:48:d1:71:91:fd:ad:02:e6:80:3d:
         f2:09:4e:f7:eb:33:82:f9:a6:ef:44:a8:86:aa:45:2b:c8:8c:
         44:c4:91:ac:85:b1:d4:6b:8b:01:32:d1:2f:d6:b9:a3:51:31:
         c4:ce:7b:b1:92:69:92:6e:e4:c1:12:e9:9e:a3:3f:15:77:2b:
         9c:17:e1:57
-----BEGIN CERTIFICATE-----
MIIFHDCCBASgAwIBAgIBFjANBgkqhkiG9w0BAQsFADCBpDELMAkGA1UEBhMCUlUx
CzAJBgNVBAgTAlJVMRYwFAYDVQQHEw1ZZWthdGVyaW5idXJnMRIwEAYDVQQKEwly
dWN0Zi5vcmcxDjAMBgNVBAsTBXJ1Y3RmMRUwEwYDVQQDEwxydWN0Zi5vcmcgQ0Ex
DzANBgNVBCkTBkRldlZQTjEkMCIGCSqGSIb3DQEJARYVZGltbW9ib3JnaXJAZ21h
aWwuY29tMB4XDTE2MDMyNTE5MjIwM1oXDTI2MDMyMzE5MjIwM1owgZ4xCzAJBgNV
BAYTAlJVMQswCQYDVQQIEwJSVTEWMBQGA1UEBxMNWWVrYXRlcmluYnVyZzESMBAG
A1UEChMJcnVjdGYub3JnMQ4wDAYDVQQLEwVydWN0ZjEPMA0GA1UEAxMGdGVhbTIx
MQ8wDQYDVQQpEwZEZXZWUE4xJDAiBgkqhkiG9w0BCQEWFWRpbW1vYm9yZ2lyQGdt
YWlsLmNvbTCCASIwDQYJKoZIhvcNAQEBBQADggEPADCCAQoCggEBAKpdh0c9T+Gj
wcC31f+DWRAXcKrPMm7sqD6NGSVagdNAgSsXHEL15Q8HmtAqQTohIB/8EbDBbpdz
pzUeW1QTxZkZEjoTKeLE5awyOC++WnPUFVIl7gNYIEjWCFhvuhbDXWi12BYXZjhQ
i5LSXX1JqX/hDm+xEI85z6OAEQQ21WEToGydlFRcDRolcONkbMtaf7ZqvFtYIY2y
9sASQQAqZaRKEdPodW7trmp97Fks7VbBFww7bm83oIG2IkM3QG8yqd1oQPzXVI/4
aJ2t7eZ5x653WMKhZk/ZkRzpouhcQ0gMUkx4pP3Edj+BCFHW4OZ/gWipNnVIwcSZ
90kkvR1/R6kCAwEAAaOCAVswggFXMAkGA1UdEwQCMAAwLQYJYIZIAYb4QgENBCAW
HkVhc3ktUlNBIEdlbmVyYXRlZCBDZXJ0aWZpY2F0ZTAdBgNVHQ4EFgQUEUmWtZIS
ySn/m7+ZhqSwVjKEcBowgdkGA1UdIwSB0TCBzoAUUXJax3WDozkuICDgcAkuC9g+
jCuhgaqkgacwgaQxCzAJBgNVBAYTAlJVMQswCQYDVQQIEwJSVTEWMBQGA1UEBxMN
WWVrYXRlcmluYnVyZzESMBAGA1UEChMJcnVjdGYub3JnMQ4wDAYDVQQLEwVydWN0
ZjEVMBMGA1UEAxMMcnVjdGYub3JnIENBMQ8wDQYDVQQpEwZEZXZWUE4xJDAiBgkq
hkiG9w0BCQEWFWRpbW1vYm9yZ2lyQGdtYWlsLmNvbYIJAM1FcPFq5/22MBMGA1Ud
JQQMMAoGCCsGAQUFBwMCMAsGA1UdDwQEAwIHgDANBgkqhkiG9w0BAQsFAAOCAQEA
Wep3mZfn7VtTGzYRdGQ/ZHakytuR0mB335nWXvzueiRI1KjYCVx642YyPYAFIUvk
wsw0c2/YU+D5xSKO+lV6H36MQh5VmlGX1nd1YTBTnTea9BW0kw9I7Bk8yuk5OoOh
m4Em6Ys5n84a07ujdv/TxGjFdbZvxTEmAiyo/SuwNT7yUiJW3iyfsZZXeLPN3xfh
lN33mkT20z1aoAkBUZxhxWKB72JweI8QOrQvCk0m/dRrq+m2RsXiDGyoCX5I0XGR
/a0C5oA98glO9+szgvmm70SohqpFK8iMRMSRrIWx1GuLATLRL9a5o1ExxM57sZJp
km7kwRLpnqM/FXcrnBfhVw==
-----END CERTIFICATE-----
