Certificate:
    Data:
        Version: 3 (0x2)
        Serial Number: 23 (0x17)
    Signature Algorithm: sha256WithRSAEncryption
        Issuer: C=RU, ST=RU, L=Yekaterinburg, O=ructf.org, OU=ructf, CN=ructf.org CA/name=DevVPN/emailAddress=dimmoborgir@gmail.com
        Validity
            Not Before: Mar 25 19:22:03 2016 GMT
            Not After : Mar 23 19:22:03 2026 GMT
        Subject: C=RU, ST=RU, L=Yekaterinburg, O=ructf.org, OU=ructf, CN=team22/name=DevVPN/emailAddress=dimmoborgir@gmail.com
        Subject Public Key Info:
            Public Key Algorithm: rsaEncryption
                Public-Key: (2048 bit)
                Modulus:
                    00:a0:d8:e6:d6:fe:61:cd:eb:b7:b7:6d:8e:bc:72:
                    e7:5e:58:a1:bf:72:f7:56:7c:93:7b:f9:4c:ae:8c:
                    ed:6e:35:67:55:dc:a4:18:f6:3c:c4:c2:1e:00:23:
                    35:e5:99:a8:41:ef:68:20:6c:b7:b1:07:c6:72:54:
                    09:94:84:52:fd:57:ee:97:45:f3:47:9a:21:03:b5:
                    17:f7:e8:e1:8c:60:dc:3d:83:b7:92:38:2d:b0:ee:
                    8e:a1:85:b8:33:a1:29:b4:34:d8:74:00:3b:e8:f2:
                    34:d1:64:50:e6:5f:bb:d9:3c:f9:9a:75:df:64:4a:
                    db:58:cc:10:4a:9d:3d:ac:24:65:c4:c1:86:48:99:
                    fa:22:62:e5:fe:86:21:4a:1e:ab:cd:08:74:30:fc:
                    33:7e:75:1a:61:12:e2:42:ca:e1:76:a8:f3:12:f2:
                    50:f6:7e:f4:12:ba:f4:dc:ab:bc:0d:87:35:7e:e4:
                    80:2f:30:2a:45:aa:9e:03:1e:43:b8:30:fb:3c:c5:
                    9b:95:a2:64:e0:e2:40:3d:4c:e7:95:27:ce:b4:1c:
                    3f:d5:74:ca:6c:b1:ac:4b:48:7f:0e:10:7e:5e:d6:
                    0d:12:9a:62:99:18:91:8a:7a:47:d0:75:83:fe:8d:
                    f8:10:cb:ce:0e:ec:0a:ad:47:d8:77:b9:f6:77:43:
                    75:83
                Exponent: 65537 (0x10001)
        X509v3 extensions:
            X509v3 Basic Constraints: 
                CA:FALSE
            Netscape Comment: 
                Easy-RSA Generated Certificate
            X509v3 Subject Key Identifier: 
                CE:F6:06:85:18:BB:8C:22:B4:8B:71:C6:EC:31:22:5C:B8:73:96:9B
            X509v3 Authority Key Identifier: 
                keyid:51:72:5A:C7:75:83:A3:39:2E:20:20:E0:70:09:2E:0B:D8:3E:8C:2B
                DirName:/C=RU/ST=RU/L=Yekaterinburg/O=ructf.org/OU=ructf/CN=ructf.org CA/name=DevVPN/emailAddress=dimmoborgir@gmail.com
                serial:CD:45:70:F1:6A:E7:FD:B6

            X509v3 Extended Key Usage: 
                TLS Web Client Authentication
            X509v3 Key Usage: 
                Digital Signature
    Signature Algorithm: sha256WithRSAEncryption
         46:f9:96:48:49:ce:42:9a:1b:6f:f6:6b:84:83:45:ad:c8:a0:
         fa:04:b0:77:fe:91:90:78:85:34:2c:cc:d4:d8:5e:cc:d9:b3:
         9a:45:53:93:72:86:7b:e7:2e:07:a1:e1:65:2a:01:81:45:d0:
         9b:82:9f:7e:e2:df:88:74:f1:bc:fe:d4:88:40:6e:d1:3b:52:
         bf:14:02:7d:9f:b8:95:7b:57:e4:23:a3:4f:35:3f:b5:f7:b0:
         ae:0d:1f:21:42:98:c1:e2:da:61:45:d7:00:f0:f6:f5:ed:fd:
         91:bf:13:15:82:03:75:c2:3b:a0:16:0e:90:b1:76:2d:8a:73:
         b1:01:3e:1c:da:c2:02:a5:42:e5:14:c9:ad:2d:63:41:e9:1a:
         26:f7:73:51:c7:ef:1d:6b:71:91:78:d7:16:66:27:db:82:5d:
         ac:ac:e7:f2:ae:ca:e9:96:8f:7b:c9:8d:bd:d5:bc:d6:ad:28:
         d1:bc:cf:83:09:26:f8:b4:17:43:7c:91:d7:b2:50:97:14:3f:
         e8:0c:1f:76:11:96:8c:f2:f5:61:ae:24:ff:d4:f2:2b:64:ba:
         d8:b0:d6:ab:b4:d4:6d:00:8c:c4:56:73:21:eb:c1:9d:4d:22:
         cf:07:f8:a2:7e:19:ad:3a:ed:40:6d:9f:e8:26:da:c5:38:13:
         01:b5:2f:60
-----BEGIN CERTIFICATE-----
MIIFHDCCBASgAwIBAgIBFzANBgkqhkiG9w0BAQsFADCBpDELMAkGA1UEBhMCUlUx
CzAJBgNVBAgTAlJVMRYwFAYDVQQHEw1ZZWthdGVyaW5idXJnMRIwEAYDVQQKEwly
dWN0Zi5vcmcxDjAMBgNVBAsTBXJ1Y3RmMRUwEwYDVQQDEwxydWN0Zi5vcmcgQ0Ex
DzANBgNVBCkTBkRldlZQTjEkMCIGCSqGSIb3DQEJARYVZGltbW9ib3JnaXJAZ21h
aWwuY29tMB4XDTE2MDMyNTE5MjIwM1oXDTI2MDMyMzE5MjIwM1owgZ4xCzAJBgNV
BAYTAlJVMQswCQYDVQQIEwJSVTEWMBQGA1UEBxMNWWVrYXRlcmluYnVyZzESMBAG
A1UEChMJcnVjdGYub3JnMQ4wDAYDVQQLEwVydWN0ZjEPMA0GA1UEAxMGdGVhbTIy
MQ8wDQYDVQQpEwZEZXZWUE4xJDAiBgkqhkiG9w0BCQEWFWRpbW1vYm9yZ2lyQGdt
YWlsLmNvbTCCASIwDQYJKoZIhvcNAQEBBQADggEPADCCAQoCggEBAKDY5tb+Yc3r
t7dtjrxy515Yob9y91Z8k3v5TK6M7W41Z1XcpBj2PMTCHgAjNeWZqEHvaCBst7EH
xnJUCZSEUv1X7pdF80eaIQO1F/fo4Yxg3D2Dt5I4LbDujqGFuDOhKbQ02HQAO+jy
NNFkUOZfu9k8+Zp132RK21jMEEqdPawkZcTBhkiZ+iJi5f6GIUoeq80IdDD8M351
GmES4kLK4Xao8xLyUPZ+9BK69NyrvA2HNX7kgC8wKkWqngMeQ7gw+zzFm5WiZODi
QD1M55UnzrQcP9V0ymyxrEtIfw4Qfl7WDRKaYpkYkYp6R9B1g/6N+BDLzg7sCq1H
2He59ndDdYMCAwEAAaOCAVswggFXMAkGA1UdEwQCMAAwLQYJYIZIAYb4QgENBCAW
HkVhc3ktUlNBIEdlbmVyYXRlZCBDZXJ0aWZpY2F0ZTAdBgNVHQ4EFgQUzvYGhRi7
jCK0i3HG7DEiXLhzlpswgdkGA1UdIwSB0TCBzoAUUXJax3WDozkuICDgcAkuC9g+
jCuhgaqkgacwgaQxCzAJBgNVBAYTAlJVMQswCQYDVQQIEwJSVTEWMBQGA1UEBxMN
WWVrYXRlcmluYnVyZzESMBAGA1UEChMJcnVjdGYub3JnMQ4wDAYDVQQLEwVydWN0
ZjEVMBMGA1UEAxMMcnVjdGYub3JnIENBMQ8wDQYDVQQpEwZEZXZWUE4xJDAiBgkq
hkiG9w0BCQEWFWRpbW1vYm9yZ2lyQGdtYWlsLmNvbYIJAM1FcPFq5/22MBMGA1Ud
JQQMMAoGCCsGAQUFBwMCMAsGA1UdDwQEAwIHgDANBgkqhkiG9w0BAQsFAAOCAQEA
RvmWSEnOQpobb/ZrhINFrcig+gSwd/6RkHiFNCzM1NhezNmzmkVTk3KGe+cuB6Hh
ZSoBgUXQm4KffuLfiHTxvP7UiEBu0TtSvxQCfZ+4lXtX5COjTzU/tfewrg0fIUKY
weLaYUXXAPD29e39kb8TFYIDdcI7oBYOkLF2LYpzsQE+HNrCAqVC5RTJrS1jQeka
JvdzUcfvHWtxkXjXFmYn24JdrKzn8q7K6ZaPe8mNvdW81q0o0bzPgwkm+LQXQ3yR
17JQlxQ/6AwfdhGWjPL1Ya4k/9TyK2S62LDWq7TUbQCMxFZzIevBnU0izwf4on4Z
rTrtQG2f6CbaxTgTAbUvYA==
-----END CERTIFICATE-----
