Certificate:
    Data:
        Version: 3 (0x2)
        Serial Number: 24 (0x18)
    Signature Algorithm: sha256WithRSAEncryption
        Issuer: C=RU, ST=RU, L=Yekaterinburg, O=ructf.org, OU=ructf, CN=ructf.org CA/name=DevVPN/emailAddress=dimmoborgir@gmail.com
        Validity
            Not Before: Mar 25 19:22:04 2016 GMT
            Not After : Mar 23 19:22:04 2026 GMT
        Subject: C=RU, ST=RU, L=Yekaterinburg, O=ructf.org, OU=ructf, CN=team23/name=DevVPN/emailAddress=dimmoborgir@gmail.com
        Subject Public Key Info:
            Public Key Algorithm: rsaEncryption
                Public-Key: (2048 bit)
                Modulus:
                    00:b0:9d:e4:58:7b:3e:fb:91:27:8f:79:9b:8b:0c:
                    7a:5f:97:5d:de:27:13:85:a5:85:bb:08:34:61:ff:
                    8f:a7:e1:cf:00:67:10:81:bb:05:ca:ac:d2:1d:6f:
                    36:6b:68:ad:33:9f:3e:0a:1e:1e:a3:e2:78:51:96:
                    4b:5b:3e:f4:0e:43:40:4c:08:3d:99:59:ac:c8:e6:
                    f3:3e:70:72:0c:ad:6f:bf:df:90:bf:ca:aa:a2:0f:
                    20:e8:68:dc:64:48:65:af:55:91:4b:2b:c4:e2:08:
                    e8:2d:62:22:16:d9:81:85:e3:52:22:2d:6c:43:d8:
                    de:b8:e8:62:80:66:49:00:c6:94:1f:1c:e6:ee:4e:
                    06:78:38:29:b7:e5:20:25:04:8a:ac:e4:19:5f:46:
                    8b:19:df:fd:78:50:ad:cb:cc:45:ec:7c:7e:42:2e:
                    82:16:a0:42:92:5d:e5:80:29:40:65:c4:09:1f:28:
                    aa:27:26:c3:e8:d5:19:04:f8:57:3c:02:07:f3:b4:
                    2a:84:49:ab:f0:b2:13:2f:03:34:55:3d:fa:72:fb:
                    46:4b:6f:36:a7:61:cf:d6:1a:ea:67:60:97:32:a1:
                    30:87:44:28:e5:94:8d:4f:58:76:3e:13:1f:f9:d4:
                    9a:b5:7b:c7:32:27:5c:22:f8:7d:7e:9c:f8:1a:a4:
                    e2:41
                Exponent: 65537 (0x10001)
        X509v3 extensions:
            X509v3 Basic Constraints: 
                CA:FALSE
            Netscape Comment: 
                Easy-RSA Generated Certificate
            X509v3 Subject Key Identifier: 
                FD:02:B1:4B:80:2E:EA:5E:17:8D:5A:DB:61:9A:9B:3B:8C:78:C5:B6
            X509v3 Authority Key Identifier: 
                keyid:51:72:5A:C7:75:83:A3:39:2E:20:20:E0:70:09:2E:0B:D8:3E:8C:2B
                DirName:/C=RU/ST=RU/L=Yekaterinburg/O=ructf.org/OU=ructf/CN=ructf.org CA/name=DevVPN/emailAddress=dimmoborgir@gmail.com
                serial:CD:45:70:F1:6A:E7:FD:B6

            X509v3 Extended Key Usage: 
                TLS Web Client Authentication
            X509v3 Key Usage: 
                Digital Signature
    Signature Algorithm: sha256WithRSAEncryption
         2f:5e:b7:e5:7e:83:20:a9:55:94:04:00:fe:4d:ce:e8:a0:d8:
         16:61:cc:9f:35:84:21:ad:31:1b:88:53:ba:32:44:19:e2:21:
         c7:f2:7c:8a:26:b3:80:2e:c1:7f:b2:fc:ba:f2:4f:59:40:2e:
         f5:71:0e:d1:67:29:ac:61:60:a2:f6:64:3a:bd:45:1e:c5:26:
         33:32:0b:03:cf:86:14:6b:7a:b8:60:5c:15:13:d0:fe:a0:b7:
         6f:4e:ee:42:2c:32:fc:56:db:1b:13:57:6e:e4:55:3f:db:cb:
         b5:15:fd:4b:fd:fb:5a:a9:a8:75:55:53:74:01:ba:2c:58:3e:
         10:ee:52:8b:67:f3:f2:e7:79:99:3d:c3:48:48:9c:99:0a:1c:
         8d:75:91:1a:e1:d6:3d:3a:57:65:c0:7c:6d:c9:25:fa:b2:c5:
         75:d8:81:29:e5:27:fa:72:2f:ec:4f:f2:82:2f:4e:47:d8:46:
         e1:93:49:20:f3:26:54:7b:ea:be:6c:5b:2b:9b:b8:34:41:60:
         9c:da:36:53:ac:c5:04:27:53:1a:03:35:bd:b9:4b:e8:bd:31:
         05:1e:03:cd:66:20:54:23:30:65:4d:91:9f:31:45:0b:3d:fc:
         93:21:43:4e:26:14:93:89:8b:5b:f4:90:d6:b4:02:a7:54:73:
         3f:ec:16:fa
-----BEGIN CERTIFICATE-----
MIIFHDCCBASgAwIBAgIBGDANBgkqhkiG9w0BAQsFADCBpDELMAkGA1UEBhMCUlUx
CzAJBgNVBAgTAlJVMRYwFAYDVQQHEw1ZZWthdGVyaW5idXJnMRIwEAYDVQQKEwly
dWN0Zi5vcmcxDjAMBgNVBAsTBXJ1Y3RmMRUwEwYDVQQDEwxydWN0Zi5vcmcgQ0Ex
DzANBgNVBCkTBkRldlZQTjEkMCIGCSqGSIb3DQEJARYVZGltbW9ib3JnaXJAZ21h
aWwuY29tMB4XDTE2MDMyNTE5MjIwNFoXDTI2MDMyMzE5MjIwNFowgZ4xCzAJBgNV
BAYTAlJVMQswCQYDVQQIEwJSVTEWMBQGA1UEBxMNWWVrYXRlcmluYnVyZzESMBAG
A1UEChMJcnVjdGYub3JnMQ4wDAYDVQQLEwVydWN0ZjEPMA0GA1UEAxMGdGVhbTIz
MQ8wDQYDVQQpEwZEZXZWUE4xJDAiBgkqhkiG9w0BCQEWFWRpbW1vYm9yZ2lyQGdt
YWlsLmNvbTCCASIwDQYJKoZIhvcNAQEBBQADggEPADCCAQoCggEBALCd5Fh7PvuR
J495m4sMel+XXd4nE4WlhbsINGH/j6fhzwBnEIG7Bcqs0h1vNmtorTOfPgoeHqPi
eFGWS1s+9A5DQEwIPZlZrMjm8z5wcgytb7/fkL/KqqIPIOho3GRIZa9VkUsrxOII
6C1iIhbZgYXjUiItbEPY3rjoYoBmSQDGlB8c5u5OBng4KbflICUEiqzkGV9Gixnf
/XhQrcvMRex8fkIughagQpJd5YApQGXECR8oqicmw+jVGQT4VzwCB/O0KoRJq/Cy
Ey8DNFU9+nL7RktvNqdhz9Ya6mdglzKhMIdEKOWUjU9Ydj4TH/nUmrV7xzInXCL4
fX6c+Bqk4kECAwEAAaOCAVswggFXMAkGA1UdEwQCMAAwLQYJYIZIAYb4QgENBCAW
HkVhc3ktUlNBIEdlbmVyYXRlZCBDZXJ0aWZpY2F0ZTAdBgNVHQ4EFgQU/QKxS4Au
6l4XjVrbYZqbO4x4xbYwgdkGA1UdIwSB0TCBzoAUUXJax3WDozkuICDgcAkuC9g+
jCuhgaqkgacwgaQxCzAJBgNVBAYTAlJVMQswCQYDVQQIEwJSVTEWMBQGA1UEBxMN
WWVrYXRlcmluYnVyZzESMBAGA1UEChMJcnVjdGYub3JnMQ4wDAYDVQQLEwVydWN0
ZjEVMBMGA1UEAxMMcnVjdGYub3JnIENBMQ8wDQYDVQQpEwZEZXZWUE4xJDAiBgkq
hkiG9w0BCQEWFWRpbW1vYm9yZ2lyQGdtYWlsLmNvbYIJAM1FcPFq5/22MBMGA1Ud
JQQMMAoGCCsGAQUFBwMCMAsGA1UdDwQEAwIHgDANBgkqhkiG9w0BAQsFAAOCAQEA
L1635X6DIKlVlAQA/k3O6KDYFmHMnzWEIa0xG4hTujJEGeIhx/J8iiazgC7Bf7L8
uvJPWUAu9XEO0WcprGFgovZkOr1FHsUmMzILA8+GFGt6uGBcFRPQ/qC3b07uQiwy
/FbbGxNXbuRVP9vLtRX9S/37WqmodVVTdAG6LFg+EO5Si2fz8ud5mT3DSEicmQoc
jXWRGuHWPTpXZcB8bckl+rLFddiBKeUn+nIv7E/ygi9OR9hG4ZNJIPMmVHvqvmxb
K5u4NEFgnNo2U6zFBCdTGgM1vblL6L0xBR4DzWYgVCMwZU2RnzFFCz38kyFDTiYU
k4mLW/SQ1rQCp1RzP+wW+g==
-----END CERTIFICATE-----
