Certificate:
    Data:
        Version: 3 (0x2)
        Serial Number: 28 (0x1c)
    Signature Algorithm: sha256WithRSAEncryption
        Issuer: C=RU, ST=RU, L=Yekaterinburg, O=ructf.org, OU=ructf, CN=ructf.org CA/name=DevVPN/emailAddress=dimmoborgir@gmail.com
        Validity
            Not Before: Mar 25 19:22:05 2016 GMT
            Not After : Mar 23 19:22:05 2026 GMT
        Subject: C=RU, ST=RU, L=Yekaterinburg, O=ructf.org, OU=ructf, CN=team27/name=DevVPN/emailAddress=dimmoborgir@gmail.com
        Subject Public Key Info:
            Public Key Algorithm: rsaEncryption
                Public-Key: (2048 bit)
                Modulus:
                    00:b9:46:00:24:ad:2e:8f:cf:f0:fd:ef:42:34:8f:
                    4e:1c:bd:53:16:14:7b:72:50:5d:8d:2a:22:e7:24:
                    b1:02:58:60:22:ed:c0:a7:14:d3:25:8c:fb:22:50:
                    fc:3f:dd:a3:17:84:28:f2:5b:d4:07:18:85:69:66:
                    df:19:2c:12:c8:af:7b:72:61:6e:dc:d6:c2:03:c6:
                    6d:05:d5:98:1b:d2:52:f8:2f:51:a5:4b:5a:ae:64:
                    e0:f0:cf:0f:f4:68:86:9d:a7:94:aa:8a:d0:d1:d7:
                    55:86:4f:44:20:05:89:39:54:bd:51:29:08:e1:55:
                    d0:95:8f:ee:3b:6f:26:e6:02:d9:97:be:79:b7:e9:
                    ce:9b:16:85:bf:51:9e:4b:84:53:5e:06:e4:db:e4:
                    c2:0a:6d:8a:1d:c7:ca:01:70:69:e3:fe:57:9b:ff:
                    0e:89:b1:ef:54:4a:5f:34:4c:93:f4:02:94:1e:34:
                    47:b4:66:fd:13:6f:b3:3c:c9:15:64:6e:a0:18:ef:
                    7e:60:dc:2f:d6:ba:b2:f5:86:7b:78:d8:be:5f:96:
                    40:6d:ec:af:61:60:fe:9b:67:25:51:9b:f4:49:ce:
                    bb:2d:11:50:bc:1b:b1:d8:3e:b3:f6:34:d3:ab:b1:
                    ae:86:fc:d4:80:92:78:65:46:3b:eb:da:1e:1b:68:
                    03:f7
                Exponent: 65537 (0x10001)
        X509v3 extensions:
            X509v3 Basic Constraints: 
                CA:FALSE
            Netscape Comment: 
                Easy-RSA Generated Certificate
            X509v3 Subject Key Identifier: 
                A5:6D:B5:60:40:A4:4F:B5:9D:10:69:8D:40:F1:65:32:E4:D3:30:52
            X509v3 Authority Key Identifier: 
                keyid:51:72:5A:C7:75:83:A3:39:2E:20:20:E0:70:09:2E:0B:D8:3E:8C:2B
                DirName:/C=RU/ST=RU/L=Yekaterinburg/O=ructf.org/OU=ructf/CN=ructf.org CA/name=DevVPN/emailAddress=dimmoborgir@gmail.com
                serial:CD:45:70:F1:6A:E7:FD:B6

            X509v3 Extended Key Usage: 
                TLS Web Client Authentication
            X509v3 Key Usage: 
                Digital Signature
    Signature Algorithm: sha256WithRSAEncryption
         6f:5f:73:75:1a:4c:57:30:8d:ee:b3:8b:1a:c1:52:9c:03:50:
         43:e7:6d:6e:98:fb:9e:fb:cf:d8:99:62:a9:40:76:7f:6e:ed:
         f8:a0:50:d1:09:80:5b:a8:97:53:b0:db:42:e3:64:cb:ca:06:
         02:51:9e:0f:2f:3c:8f:df:13:9e:d8:1a:4d:d8:6f:a5:41:f7:
         f6:d3:27:b9:de:17:78:81:36:67:92:c5:1c:c6:a3:f4:aa:2d:
         1e:25:d9:74:43:af:a8:21:41:fb:c0:38:6a:7e:b7:23:7e:8a:
         8e:3f:ff:e9:48:72:46:8b:a1:94:f9:0f:46:be:cc:72:ce:11:
         c1:20:3e:2d:27:2e:d1:b9:0b:34:7d:78:24:f1:d8:79:d9:c0:
         4c:5d:18:98:2a:f1:7b:ad:d7:30:85:84:9d:f7:bb:80:93:7c:
         58:16:7d:52:d7:de:be:33:38:4c:14:21:11:fe:a5:8d:ca:c3:
         b3:ca:f7:af:c0:e4:f4:aa:ce:43:fb:31:23:97:76:4e:3f:6d:
         c0:5e:46:57:a5:7e:83:d6:d9:d7:43:46:10:f6:c9:db:23:83:
         2d:e1:d0:d9:4d:74:52:f9:5c:86:05:cd:26:bf:5b:b1:37:33:
         9c:1f:0d:39:04:5d:a7:21:c4:b0:d8:9a:1d:00:7a:5f:b0:66:
         c4:fc:be:e2
-----BEGIN CERTIFICATE-----
MIIFHDCCBASgAwIBAgIBHDANBgkqhkiG9w0BAQsFADCBpDELMAkGA1UEBhMCUlUx
CzAJBgNVBAgTAlJVMRYwFAYDVQQHEw1ZZWthdGVyaW5idXJnMRIwEAYDVQQKEwly
dWN0Zi5vcmcxDjAMBgNVBAsTBXJ1Y3RmMRUwEwYDVQQDEwxydWN0Zi5vcmcgQ0Ex
DzANBgNVBCkTBkRldlZQTjEkMCIGCSqGSIb3DQEJARYVZGltbW9ib3JnaXJAZ21h
aWwuY29tMB4XDTE2MDMyNTE5MjIwNVoXDTI2MDMyMzE5MjIwNVowgZ4xCzAJBgNV
BAYTAlJVMQswCQYDVQQIEwJSVTEWMBQGA1UEBxMNWWVrYXRlcmluYnVyZzESMBAG
A1UEChMJcnVjdGYub3JnMQ4wDAYDVQQLEwVydWN0ZjEPMA0GA1UEAxMGdGVhbTI3
MQ8wDQYDVQQpEwZEZXZWUE4xJDAiBgkqhkiG9w0BCQEWFWRpbW1vYm9yZ2lyQGdt
YWlsLmNvbTCCASIwDQYJKoZIhvcNAQEBBQADggEPADCCAQoCggEBALlGACStLo/P
8P3vQjSPThy9UxYUe3JQXY0qIucksQJYYCLtwKcU0yWM+yJQ/D/doxeEKPJb1AcY
hWlm3xksEsive3JhbtzWwgPGbQXVmBvSUvgvUaVLWq5k4PDPD/Rohp2nlKqK0NHX
VYZPRCAFiTlUvVEpCOFV0JWP7jtvJuYC2Ze+ebfpzpsWhb9RnkuEU14G5Nvkwgpt
ih3HygFwaeP+V5v/Domx71RKXzRMk/QClB40R7Rm/RNvszzJFWRuoBjvfmDcL9a6
svWGe3jYvl+WQG3sr2Fg/ptnJVGb9EnOuy0RULwbsdg+s/Y006uxrob81ICSeGVG
O+vaHhtoA/cCAwEAAaOCAVswggFXMAkGA1UdEwQCMAAwLQYJYIZIAYb4QgENBCAW
HkVhc3ktUlNBIEdlbmVyYXRlZCBDZXJ0aWZpY2F0ZTAdBgNVHQ4EFgQUpW21YECk
T7WdEGmNQPFlMuTTMFIwgdkGA1UdIwSB0TCBzoAUUXJax3WDozkuICDgcAkuC9g+
jCuhgaqkgacwgaQxCzAJBgNVBAYTAlJVMQswCQYDVQQIEwJSVTEWMBQGA1UEBxMN
WWVrYXRlcmluYnVyZzESMBAGA1UEChMJcnVjdGYub3JnMQ4wDAYDVQQLEwVydWN0
ZjEVMBMGA1UEAxMMcnVjdGYub3JnIENBMQ8wDQYDVQQpEwZEZXZWUE4xJDAiBgkq
hkiG9w0BCQEWFWRpbW1vYm9yZ2lyQGdtYWlsLmNvbYIJAM1FcPFq5/22MBMGA1Ud
JQQMMAoGCCsGAQUFBwMCMAsGA1UdDwQEAwIHgDANBgkqhkiG9w0BAQsFAAOCAQEA
b19zdRpMVzCN7rOLGsFSnANQQ+dtbpj7nvvP2JliqUB2f27t+KBQ0QmAW6iXU7Db
QuNky8oGAlGeDy88j98TntgaTdhvpUH39tMnud4XeIE2Z5LFHMaj9KotHiXZdEOv
qCFB+8A4an63I36Kjj//6UhyRouhlPkPRr7Mcs4RwSA+LScu0bkLNH14JPHYednA
TF0YmCrxe63XMIWEnfe7gJN8WBZ9UtfevjM4TBQhEf6ljcrDs8r3r8Dk9KrOQ/sx
I5d2Tj9twF5GV6V+g9bZ10NGEPbJ2yODLeHQ2U10UvlchgXNJr9bsTcznB8NOQRd
pyHEsNiaHQB6X7BmxPy+4g==
-----END CERTIFICATE-----
