Certificate:
    Data:
        Version: 3 (0x2)
        Serial Number: 29 (0x1d)
    Signature Algorithm: sha256WithRSAEncryption
        Issuer: C=RU, ST=RU, L=Yekaterinburg, O=ructf.org, OU=ructf, CN=ructf.org CA/name=DevVPN/emailAddress=dimmoborgir@gmail.com
        Validity
            Not Before: Mar 25 19:22:05 2016 GMT
            Not After : Mar 23 19:22:05 2026 GMT
        Subject: C=RU, ST=RU, L=Yekaterinburg, O=ructf.org, OU=ructf, CN=team28/name=DevVPN/emailAddress=dimmoborgir@gmail.com
        Subject Public Key Info:
            Public Key Algorithm: rsaEncryption
                Public-Key: (2048 bit)
                Modulus:
                    00:bf:89:4a:f9:ad:08:a0:9f:3d:64:4b:99:cf:f6:
                    b4:71:36:2b:d9:95:05:af:e1:09:bc:8a:50:02:06:
                    68:60:69:fd:4a:da:24:24:f4:f5:f6:26:b3:02:1f:
                    6f:c7:63:3c:a5:36:e0:59:4c:9a:98:d3:e5:de:8d:
                    4a:eb:08:0e:0f:00:c6:08:92:c5:e1:6c:c7:e8:ba:
                    1f:31:4d:40:e9:fb:28:1e:5c:a3:89:e1:7c:89:49:
                    90:e7:bf:cd:b6:a2:1a:33:20:74:b8:14:4e:42:08:
                    d0:f5:60:ed:c8:0e:40:f6:1f:51:03:0f:ec:11:b8:
                    ce:a1:2c:26:6a:f0:70:d5:da:89:80:3b:05:0d:c1:
                    8b:20:18:91:cc:49:da:01:21:c8:13:2c:7f:32:31:
                    da:df:2c:e3:3a:f0:84:24:5e:0f:7e:78:24:93:91:
                    bf:6d:39:aa:f7:7f:71:b6:e1:4d:7c:61:a5:e8:ff:
                    ee:19:d6:48:53:7b:63:03:b0:64:70:b9:c2:60:26:
                    b5:4e:74:9e:ac:47:ff:07:b1:24:d7:48:14:09:ec:
                    95:44:4e:80:a6:4f:0a:a1:fd:fb:b8:5b:0b:30:c4:
                    3f:a8:2e:1d:c1:cb:e7:76:52:00:83:ab:f0:0c:93:
                    39:3b:1d:ff:0a:ed:78:6d:12:17:fb:ce:bb:95:2c:
                    6c:13
                Exponent: 65537 (0x10001)
        X509v3 extensions:
            X509v3 Basic Constraints: 
                CA:FALSE
            Netscape Comment: 
                Easy-RSA Generated Certificate
            X509v3 Subject Key Identifier: 
                0B:F9:2E:D1:01:0D:CF:92:CD:6E:39:B3:76:CF:84:09:0F:7E:22:18
            X509v3 Authority Key Identifier: 
                keyid:51:72:5A:C7:75:83:A3:39:2E:20:20:E0:70:09:2E:0B:D8:3E:8C:2B
                DirName:/C=RU/ST=RU/L=Yekaterinburg/O=ructf.org/OU=ructf/CN=ructf.org CA/name=DevVPN/emailAddress=dimmoborgir@gmail.com
                serial:CD:45:70:F1:6A:E7:FD:B6

            X509v3 Extended Key Usage: 
                TLS Web Client Authentication
            X509v3 Key Usage: 
                Digital Signature
    Signature Algorithm: sha256WithRSAEncryption
         99:63:bc:87:04:b1:4a:e6:31:ee:1d:e2:62:ce:36:96:e2:d0:
         75:4f:c2:24:7c:d9:80:a9:b6:64:90:08:7a:b2:73:42:b5:f5:
         d3:72:3f:52:25:c2:02:ec:65:5f:c4:f6:dd:e7:c6:3d:d0:d7:
         b8:fd:b4:be:7a:41:a9:52:78:aa:95:c2:e0:02:bb:f5:27:7d:
         78:80:22:a8:50:26:d5:86:96:e1:0f:39:0f:2d:f3:ce:16:ce:
         c4:d4:de:da:8d:43:b2:fe:48:10:99:37:5b:41:13:17:8d:33:
         72:28:9b:06:64:d2:41:d9:b7:4c:02:86:6a:4e:a2:ea:de:93:
         ba:f8:9c:1c:fa:c5:e5:16:bc:88:f5:11:1f:10:e3:4a:09:22:
         c5:52:1a:3d:2e:36:80:00:a9:70:ae:ea:cc:28:66:8c:07:a7:
         8f:a5:0f:5e:b1:f8:94:3f:6d:2f:10:e9:9b:9e:7f:d0:62:ca:
         29:76:eb:0f:4a:c9:8c:84:da:d3:18:8e:17:d5:15:d9:44:9d:
         2c:09:5f:05:91:da:b9:66:b1:22:76:73:3a:d2:17:f8:1d:fb:
         30:e0:21:0c:b8:fb:b0:b8:39:c2:85:08:39:cf:46:08:c0:91:
         71:d6:80:86:34:3b:9f:dc:9b:e0:cd:5d:98:95:12:1e:98:08:
         70:ad:4d:5b
-----BEGIN CERTIFICATE-----
MIIFHDCCBASgAwIBAgIBHTANBgkqhkiG9w0BAQsFADCBpDELMAkGA1UEBhMCUlUx
CzAJBgNVBAgTAlJVMRYwFAYDVQQHEw1ZZWthdGVyaW5idXJnMRIwEAYDVQQKEwly
dWN0Zi5vcmcxDjAMBgNVBAsTBXJ1Y3RmMRUwEwYDVQQDEwxydWN0Zi5vcmcgQ0Ex
DzANBgNVBCkTBkRldlZQTjEkMCIGCSqGSIb3DQEJARYVZGltbW9ib3JnaXJAZ21h
aWwuY29tMB4XDTE2MDMyNTE5MjIwNVoXDTI2MDMyMzE5MjIwNVowgZ4xCzAJBgNV
BAYTAlJVMQswCQYDVQQIEwJSVTEWMBQGA1UEBxMNWWVrYXRlcmluYnVyZzESMBAG
A1UEChMJcnVjdGYub3JnMQ4wDAYDVQQLEwVydWN0ZjEPMA0GA1UEAxMGdGVhbTI4
MQ8wDQYDVQQpEwZEZXZWUE4xJDAiBgkqhkiG9w0BCQEWFWRpbW1vYm9yZ2lyQGdt
YWlsLmNvbTCCASIwDQYJKoZIhvcNAQEBBQADggEPADCCAQoCggEBAL+JSvmtCKCf
PWRLmc/2tHE2K9mVBa/hCbyKUAIGaGBp/UraJCT09fYmswIfb8djPKU24FlMmpjT
5d6NSusIDg8AxgiSxeFsx+i6HzFNQOn7KB5co4nhfIlJkOe/zbaiGjMgdLgUTkII
0PVg7cgOQPYfUQMP7BG4zqEsJmrwcNXaiYA7BQ3BiyAYkcxJ2gEhyBMsfzIx2t8s
4zrwhCReD354JJORv205qvd/cbbhTXxhpej/7hnWSFN7YwOwZHC5wmAmtU50nqxH
/wexJNdIFAnslUROgKZPCqH9+7hbCzDEP6guHcHL53ZSAIOr8AyTOTsd/wrteG0S
F/vOu5UsbBMCAwEAAaOCAVswggFXMAkGA1UdEwQCMAAwLQYJYIZIAYb4QgENBCAW
HkVhc3ktUlNBIEdlbmVyYXRlZCBDZXJ0aWZpY2F0ZTAdBgNVHQ4EFgQUC/ku0QEN
z5LNbjmzds+ECQ9+IhgwgdkGA1UdIwSB0TCBzoAUUXJax3WDozkuICDgcAkuC9g+
jCuhgaqkgacwgaQxCzAJBgNVBAYTAlJVMQswCQYDVQQIEwJSVTEWMBQGA1UEBxMN
WWVrYXRlcmluYnVyZzESMBAGA1UEChMJcnVjdGYub3JnMQ4wDAYDVQQLEwVydWN0
ZjEVMBMGA1UEAxMMcnVjdGYub3JnIENBMQ8wDQYDVQQpEwZEZXZWUE4xJDAiBgkq
hkiG9w0BCQEWFWRpbW1vYm9yZ2lyQGdtYWlsLmNvbYIJAM1FcPFq5/22MBMGA1Ud
JQQMMAoGCCsGAQUFBwMCMAsGA1UdDwQEAwIHgDANBgkqhkiG9w0BAQsFAAOCAQEA
mWO8hwSxSuYx7h3iYs42luLQdU/CJHzZgKm2ZJAIerJzQrX103I/UiXCAuxlX8T2
3efGPdDXuP20vnpBqVJ4qpXC4AK79Sd9eIAiqFAm1YaW4Q85Dy3zzhbOxNTe2o1D
sv5IEJk3W0ETF40zciibBmTSQdm3TAKGak6i6t6TuvicHPrF5Ra8iPURHxDjSgki
xVIaPS42gACpcK7qzChmjAenj6UPXrH4lD9tLxDpm55/0GLKKXbrD0rJjITa0xiO
F9UV2USdLAlfBZHauWaxInZzOtIX+B37MOAhDLj7sLg5woUIOc9GCMCRcdaAhjQ7
n9yb4M1dmJUSHpgIcK1NWw==
-----END CERTIFICATE-----
