Certificate:
    Data:
        Version: 3 (0x2)
        Serial Number: 30 (0x1e)
    Signature Algorithm: sha256WithRSAEncryption
        Issuer: C=RU, ST=RU, L=Yekaterinburg, O=ructf.org, OU=ructf, CN=ructf.org CA/name=DevVPN/emailAddress=dimmoborgir@gmail.com
        Validity
            Not Before: Mar 25 19:22:05 2016 GMT
            Not After : Mar 23 19:22:05 2026 GMT
        Subject: C=RU, ST=RU, L=Yekaterinburg, O=ructf.org, OU=ructf, CN=team29/name=DevVPN/emailAddress=dimmoborgir@gmail.com
        Subject Public Key Info:
            Public Key Algorithm: rsaEncryption
                Public-Key: (2048 bit)
                Modulus:
                    00:ae:80:58:35:18:17:fa:c6:b5:3c:1b:3f:8d:c9:
                    fb:d8:ea:89:f6:3f:17:92:e9:74:30:77:ed:57:f9:
                    0b:56:75:c1:b9:b2:ef:0d:e3:99:6d:f2:9b:9f:d6:
                    9e:cb:1d:d5:2a:b3:a5:6b:2e:3d:d1:d3:17:4f:3a:
                    51:3e:2f:a7:e6:a9:94:d8:e9:38:b4:04:62:4e:d0:
                    75:6f:98:81:6a:24:6b:9e:ba:e9:08:50:32:36:64:
                    81:bf:7b:69:de:bf:73:83:f3:c5:98:b9:f5:8e:19:
                    56:ab:a9:6d:96:d3:70:22:18:d4:ee:5e:d7:9e:66:
                    02:77:f8:d7:42:2d:c1:9d:77:f2:08:ca:34:21:2b:
                    41:a6:a8:d9:11:51:11:8d:a9:c6:0e:63:dd:cb:41:
                    30:17:fd:99:a2:8d:51:a3:2b:8c:c2:86:52:db:19:
                    f7:73:7d:f8:c6:43:46:94:2f:ad:81:da:85:09:85:
                    0a:50:1a:f7:e8:57:40:e7:8c:d8:9b:0d:57:23:e8:
                    f7:e1:ef:e4:1e:4c:8e:4d:1f:48:84:a2:ac:5a:6d:
                    03:7c:da:97:97:53:44:48:91:36:d3:00:47:2c:e6:
                    d2:51:6a:9e:99:12:91:82:1d:2f:e2:ba:e5:01:37:
                    ad:8c:03:81:25:4c:b8:62:93:6a:ef:dc:f1:65:3a:
                    e3:99
                Exponent: 65537 (0x10001)
        X509v3 extensions:
            X509v3 Basic Constraints: 
                CA:FALSE
            Netscape Comment: 
                Easy-RSA Generated Certificate
            X509v3 Subject Key Identifier: 
                3D:7A:5D:9B:23:03:7D:8A:11:96:DE:B6:52:5A:13:A0:8A:1A:1D:81
            X509v3 Authority Key Identifier: 
                keyid:51:72:5A:C7:75:83:A3:39:2E:20:20:E0:70:09:2E:0B:D8:3E:8C:2B
                DirName:/C=RU/ST=RU/L=Yekaterinburg/O=ructf.org/OU=ructf/CN=ructf.org CA/name=DevVPN/emailAddress=dimmoborgir@gmail.com
                serial:CD:45:70:F1:6A:E7:FD:B6

            X509v3 Extended Key Usage: 
                TLS Web Client Authentication
            X509v3 Key Usage: 
                Digital Signature
    Signature Algorithm: sha256WithRSAEncryption
         48:4e:e4:f8:e5:0a:d9:56:fc:f3:15:95:4c:39:4c:30:63:cb:
         57:ab:56:d0:73:e3:ff:9d:65:69:b9:43:cf:77:47:66:5b:14:
         77:09:2e:08:56:a0:9f:a7:e3:40:ce:c2:da:37:88:21:23:2d:
         34:f6:b1:4f:47:8e:4a:a2:84:09:7f:19:bc:0b:89:cf:32:1e:
         b4:31:03:6d:9d:be:7a:44:76:f7:85:8a:39:46:d4:51:7f:85:
         6d:fe:93:ea:da:30:5c:d6:ed:3d:77:00:ef:28:f4:ff:f7:18:
         80:04:83:01:a4:ee:9d:e3:5d:9f:39:78:05:e1:05:58:42:25:
         03:3e:e9:95:01:e6:42:2c:eb:b9:df:f8:36:c3:39:de:1a:01:
         3b:51:03:07:30:bf:19:65:ad:99:0c:e4:b1:87:fa:2d:4c:75:
         f2:77:da:4c:40:6e:71:17:4b:c3:19:84:b4:e9:6b:f8:5e:ef:
         38:7c:15:e3:41:e0:88:50:b8:d7:a6:80:e1:c8:7a:30:d0:cf:
         e0:87:4a:9e:c5:d0:00:fd:9d:14:33:9e:9f:27:01:10:43:bb:
         e5:6d:a7:d9:eb:0c:12:40:3f:c3:e7:cb:ab:40:02:b6:82:09:
         6e:d2:5c:e5:37:d6:25:ef:68:10:3a:0e:14:22:cb:11:8b:d2:
         88:d8:a7:13
-----BEGIN CERTIFICATE-----
MIIFHDCCBASgAwIBAgIBHjANBgkqhkiG9w0BAQsFADCBpDELMAkGA1UEBhMCUlUx
CzAJBgNVBAgTAlJVMRYwFAYDVQQHEw1ZZWthdGVyaW5idXJnMRIwEAYDVQQKEwly
dWN0Zi5vcmcxDjAMBgNVBAsTBXJ1Y3RmMRUwEwYDVQQDEwxydWN0Zi5vcmcgQ0Ex
DzANBgNVBCkTBkRldlZQTjEkMCIGCSqGSIb3DQEJARYVZGltbW9ib3JnaXJAZ21h
aWwuY29tMB4XDTE2MDMyNTE5MjIwNVoXDTI2MDMyMzE5MjIwNVowgZ4xCzAJBgNV
BAYTAlJVMQswCQYDVQQIEwJSVTEWMBQGA1UEBxMNWWVrYXRlcmluYnVyZzESMBAG
A1UEChMJcnVjdGYub3JnMQ4wDAYDVQQLEwVydWN0ZjEPMA0GA1UEAxMGdGVhbTI5
MQ8wDQYDVQQpEwZEZXZWUE4xJDAiBgkqhkiG9w0BCQEWFWRpbW1vYm9yZ2lyQGdt
YWlsLmNvbTCCASIwDQYJKoZIhvcNAQEBBQADggEPADCCAQoCggEBAK6AWDUYF/rG
tTwbP43J+9jqifY/F5LpdDB37Vf5C1Z1wbmy7w3jmW3ym5/Wnssd1SqzpWsuPdHT
F086UT4vp+aplNjpOLQEYk7QdW+YgWoka5666QhQMjZkgb97ad6/c4PzxZi59Y4Z
VqupbZbTcCIY1O5e155mAnf410ItwZ138gjKNCErQaao2RFREY2pxg5j3ctBMBf9
maKNUaMrjMKGUtsZ93N9+MZDRpQvrYHahQmFClAa9+hXQOeM2JsNVyPo9+Hv5B5M
jk0fSISirFptA3zal5dTREiRNtMARyzm0lFqnpkSkYIdL+K65QE3rYwDgSVMuGKT
au/c8WU645kCAwEAAaOCAVswggFXMAkGA1UdEwQCMAAwLQYJYIZIAYb4QgENBCAW
HkVhc3ktUlNBIEdlbmVyYXRlZCBDZXJ0aWZpY2F0ZTAdBgNVHQ4EFgQUPXpdmyMD
fYoRlt62UloToIoaHYEwgdkGA1UdIwSB0TCBzoAUUXJax3WDozkuICDgcAkuC9g+
jCuhgaqkgacwgaQxCzAJBgNVBAYTAlJVMQswCQYDVQQIEwJSVTEWMBQGA1UEBxMN
WWVrYXRlcmluYnVyZzESMBAGA1UEChMJcnVjdGYub3JnMQ4wDAYDVQQLEwVydWN0
ZjEVMBMGA1UEAxMMcnVjdGYub3JnIENBMQ8wDQYDVQQpEwZEZXZWUE4xJDAiBgkq
hkiG9w0BCQEWFWRpbW1vYm9yZ2lyQGdtYWlsLmNvbYIJAM1FcPFq5/22MBMGA1Ud
JQQMMAoGCCsGAQUFBwMCMAsGA1UdDwQEAwIHgDANBgkqhkiG9w0BAQsFAAOCAQEA
SE7k+OUK2Vb88xWVTDlMMGPLV6tW0HPj/51lablDz3dHZlsUdwkuCFagn6fjQM7C
2jeIISMtNPaxT0eOSqKECX8ZvAuJzzIetDEDbZ2+ekR294WKOUbUUX+Fbf6T6tow
XNbtPXcA7yj0//cYgASDAaTuneNdnzl4BeEFWEIlAz7plQHmQizrud/4NsM53hoB
O1EDBzC/GWWtmQzksYf6LUx18nfaTEBucRdLwxmEtOlr+F7vOHwV40HgiFC416aA
4ch6MNDP4IdKnsXQAP2dFDOenycBEEO75W2n2esMEkA/w+fLq0ACtoIJbtJc5TfW
Je9oEDoOFCLLEYvSiNinEw==
-----END CERTIFICATE-----
