Certificate:
    Data:
        Version: 3 (0x2)
        Serial Number: 31 (0x1f)
    Signature Algorithm: sha256WithRSAEncryption
        Issuer: C=RU, ST=RU, L=Yekaterinburg, O=ructf.org, OU=ructf, CN=ructf.org CA/name=DevVPN/emailAddress=dimmoborgir@gmail.com
        Validity
            Not Before: Mar 25 19:22:06 2016 GMT
            Not After : Mar 23 19:22:06 2026 GMT
        Subject: C=RU, ST=RU, L=Yekaterinburg, O=ructf.org, OU=ructf, CN=team30/name=DevVPN/emailAddress=dimmoborgir@gmail.com
        Subject Public Key Info:
            Public Key Algorithm: rsaEncryption
                Public-Key: (2048 bit)
                Modulus:
                    00:ca:a4:6c:a4:cf:12:73:32:c8:7d:aa:7d:da:31:
                    89:7e:9b:3f:a5:e6:e8:a7:99:f8:99:da:1e:22:dc:
                    a9:ae:01:49:18:9f:9d:64:fd:c4:a5:40:13:b7:64:
                    ad:7d:69:18:9c:ef:9f:27:17:7c:a4:8c:ec:91:b5:
                    73:46:24:04:a7:53:46:b9:14:ee:8a:d8:2d:a2:1f:
                    1b:12:88:39:72:0c:8a:e7:37:f5:7f:b9:c4:72:14:
                    35:5b:94:0c:61:c4:c7:38:55:ff:c4:58:05:5a:42:
                    15:74:52:8e:9b:74:fc:0f:a6:be:d9:03:75:3c:fb:
                    d9:dd:33:b6:b0:7f:e7:4a:5c:94:84:35:1d:a7:3c:
                    5f:8d:53:de:fe:51:bb:ff:ed:b8:f5:b2:6b:d5:fb:
                    22:52:31:a6:e2:3d:7c:fb:ca:40:67:6c:7c:4d:db:
                    c3:ae:cc:f0:85:dd:a9:93:d4:3c:1c:3c:0a:1c:49:
                    ae:a0:44:61:0f:3c:ca:2b:3f:6b:1f:06:4f:81:f3:
                    79:a1:72:bf:18:38:91:18:c3:aa:1e:9a:4b:41:f0:
                    2f:10:0a:52:a2:3b:f4:b0:bc:37:61:11:94:23:6e:
                    2c:b8:87:45:01:68:f9:ee:ee:95:12:c0:06:c3:15:
                    da:11:a6:68:3e:1a:51:98:19:75:04:53:59:2d:57:
                    0f:f9
                Exponent: 65537 (0x10001)
        X509v3 extensions:
            X509v3 Basic Constraints: 
                CA:FALSE
            Netscape Comment: 
                Easy-RSA Generated Certificate
            X509v3 Subject Key Identifier: 
                44:38:78:03:0C:9B:DF:C1:47:C1:83:3D:B5:8F:ED:C8:9A:CB:FB:E6
            X509v3 Authority Key Identifier: 
                keyid:51:72:5A:C7:75:83:A3:39:2E:20:20:E0:70:09:2E:0B:D8:3E:8C:2B
                DirName:/C=RU/ST=RU/L=Yekaterinburg/O=ructf.org/OU=ructf/CN=ructf.org CA/name=DevVPN/emailAddress=dimmoborgir@gmail.com
                serial:CD:45:70:F1:6A:E7:FD:B6

            X509v3 Extended Key Usage: 
                TLS Web Client Authentication
            X509v3 Key Usage: 
                Digital Signature
    Signature Algorithm: sha256WithRSAEncryption
         73:6f:01:00:ca:47:74:60:bd:a4:02:6d:31:72:8c:8e:b0:b4:
         ab:25:67:fe:08:63:cb:f5:b1:ee:e1:fb:98:72:1f:c9:14:d8:
         7c:ff:d8:8d:5f:6a:01:5e:47:ac:38:62:fa:ff:09:5d:a4:bf:
         17:c8:02:88:27:77:fe:88:a4:26:7d:34:be:31:d1:18:4a:d6:
         4a:e2:cb:06:90:98:b8:ed:3d:03:76:43:52:00:89:19:95:c9:
         c0:a6:1e:2c:58:d3:75:a0:07:54:d7:bf:95:57:71:bc:50:d9:
         a1:ad:69:12:16:3a:b8:87:0c:b0:ec:76:dd:61:3a:92:d3:85:
         66:0b:59:e0:4c:38:3f:34:0d:fd:18:4a:22:32:1b:08:cb:a7:
         2b:b5:d6:80:65:a5:68:46:64:5b:71:fa:58:5d:a0:03:c1:bf:
         19:f6:09:c5:95:47:11:3a:0e:59:96:51:1b:ac:45:7b:bd:42:
         e6:c5:11:ab:ac:e8:e6:ae:14:9c:cc:80:6c:ec:31:03:a0:e1:
         f1:96:3e:1a:e4:e6:ba:cb:95:a5:80:7c:01:55:cf:4f:22:6a:
         19:22:6a:29:da:45:62:26:68:31:43:bc:28:93:24:49:94:db:
         dc:06:5c:b5:e5:69:0c:80:9d:1e:3c:69:88:2e:6f:36:32:e5:
         db:fe:8f:ce
-----BEGIN CERTIFICATE-----
MIIFHDCCBASgAwIBAgIBHzANBgkqhkiG9w0BAQsFADCBpDELMAkGA1UEBhMCUlUx
CzAJBgNVBAgTAlJVMRYwFAYDVQQHEw1ZZWthdGVyaW5idXJnMRIwEAYDVQQKEwly
dWN0Zi5vcmcxDjAMBgNVBAsTBXJ1Y3RmMRUwEwYDVQQDEwxydWN0Zi5vcmcgQ0Ex
DzANBgNVBCkTBkRldlZQTjEkMCIGCSqGSIb3DQEJARYVZGltbW9ib3JnaXJAZ21h
aWwuY29tMB4XDTE2MDMyNTE5MjIwNloXDTI2MDMyMzE5MjIwNlowgZ4xCzAJBgNV
BAYTAlJVMQswCQYDVQQIEwJSVTEWMBQGA1UEBxMNWWVrYXRlcmluYnVyZzESMBAG
A1UEChMJcnVjdGYub3JnMQ4wDAYDVQQLEwVydWN0ZjEPMA0GA1UEAxMGdGVhbTMw
MQ8wDQYDVQQpEwZEZXZWUE4xJDAiBgkqhkiG9w0BCQEWFWRpbW1vYm9yZ2lyQGdt
YWlsLmNvbTCCASIwDQYJKoZIhvcNAQEBBQADggEPADCCAQoCggEBAMqkbKTPEnMy
yH2qfdoxiX6bP6Xm6KeZ+JnaHiLcqa4BSRifnWT9xKVAE7dkrX1pGJzvnycXfKSM
7JG1c0YkBKdTRrkU7orYLaIfGxKIOXIMiuc39X+5xHIUNVuUDGHExzhV/8RYBVpC
FXRSjpt0/A+mvtkDdTz72d0ztrB/50pclIQ1Hac8X41T3v5Ru//tuPWya9X7IlIx
puI9fPvKQGdsfE3bw67M8IXdqZPUPBw8ChxJrqBEYQ88yis/ax8GT4HzeaFyvxg4
kRjDqh6aS0HwLxAKUqI79LC8N2ERlCNuLLiHRQFo+e7ulRLABsMV2hGmaD4aUZgZ
dQRTWS1XD/kCAwEAAaOCAVswggFXMAkGA1UdEwQCMAAwLQYJYIZIAYb4QgENBCAW
HkVhc3ktUlNBIEdlbmVyYXRlZCBDZXJ0aWZpY2F0ZTAdBgNVHQ4EFgQURDh4Awyb
38FHwYM9tY/tyJrL++YwgdkGA1UdIwSB0TCBzoAUUXJax3WDozkuICDgcAkuC9g+
jCuhgaqkgacwgaQxCzAJBgNVBAYTAlJVMQswCQYDVQQIEwJSVTEWMBQGA1UEBxMN
WWVrYXRlcmluYnVyZzESMBAGA1UEChMJcnVjdGYub3JnMQ4wDAYDVQQLEwVydWN0
ZjEVMBMGA1UEAxMMcnVjdGYub3JnIENBMQ8wDQYDVQQpEwZEZXZWUE4xJDAiBgkq
hkiG9w0BCQEWFWRpbW1vYm9yZ2lyQGdtYWlsLmNvbYIJAM1FcPFq5/22MBMGA1Ud
JQQMMAoGCCsGAQUFBwMCMAsGA1UdDwQEAwIHgDANBgkqhkiG9w0BAQsFAAOCAQEA
c28BAMpHdGC9pAJtMXKMjrC0qyVn/ghjy/Wx7uH7mHIfyRTYfP/YjV9qAV5HrDhi
+v8JXaS/F8gCiCd3/oikJn00vjHRGErWSuLLBpCYuO09A3ZDUgCJGZXJwKYeLFjT
daAHVNe/lVdxvFDZoa1pEhY6uIcMsOx23WE6ktOFZgtZ4Ew4PzQN/RhKIjIbCMun
K7XWgGWlaEZkW3H6WF2gA8G/GfYJxZVHEToOWZZRG6xFe71C5sURq6zo5q4UnMyA
bOwxA6Dh8ZY+GuTmusuVpYB8AVXPTyJqGSJqKdpFYiZoMUO8KJMkSZTb3AZcteVp
DICdHjxpiC5vNjLl2/6Pzg==
-----END CERTIFICATE-----
