Certificate:
    Data:
        Version: 3 (0x2)
        Serial Number: 33 (0x21)
    Signature Algorithm: sha256WithRSAEncryption
        Issuer: C=RU, ST=RU, L=Yekaterinburg, O=ructf.org, OU=ructf, CN=ructf.org CA/name=DevVPN/emailAddress=dimmoborgir@gmail.com
        Validity
            Not Before: Mar 25 19:22:16 2016 GMT
            Not After : Mar 23 19:22:16 2026 GMT
        Subject: C=RU, ST=RU, L=Yekaterinburg, O=ructf.org, OU=ructf, CN=dev02/name=DevVPN/emailAddress=dimmoborgir@gmail.com
        Subject Public Key Info:
            Public Key Algorithm: rsaEncryption
                Public-Key: (2048 bit)
                Modulus:
                    00:c4:cc:dc:77:13:91:b0:a2:61:35:87:9f:f5:d1:
                    e4:9e:9d:02:33:39:49:60:b6:f5:6f:76:60:43:a1:
                    07:1b:ae:58:01:6f:99:4e:a9:88:cf:96:71:da:14:
                    34:09:88:3d:eb:c0:88:00:58:64:57:03:19:d6:54:
                    92:d3:34:28:cd:d4:79:c8:bf:5f:9b:84:db:1d:50:
                    9c:de:4f:7d:ee:f1:56:1a:fd:0c:67:4b:60:da:75:
                    93:bd:37:28:9d:02:23:d5:f9:69:81:a1:5f:81:4b:
                    f5:0c:60:7b:5b:bd:8f:3d:c7:25:07:a4:1b:58:9c:
                    39:c4:8a:5d:57:c9:f0:12:31:16:c4:00:8c:c7:12:
                    e5:ba:ce:ea:6c:6f:d1:b5:fc:eb:d1:1e:7d:c4:e5:
                    3a:bf:34:93:55:3e:e5:cb:0a:69:a4:e3:7e:53:7f:
                    2b:97:c7:e7:14:6b:7c:10:08:3c:80:84:e6:82:b3:
                    3b:d5:ca:fa:39:12:0b:31:73:26:d1:c5:18:e3:80:
                    f0:f0:1c:54:b0:d2:14:d8:e2:6f:95:48:54:e0:90:
                    3d:e1:4f:65:3b:44:68:27:56:c1:2d:72:f8:c6:6b:
                    22:4f:98:07:b9:6b:82:2e:e7:a1:83:ca:2f:34:4e:
                    b2:54:9d:80:f2:c7:81:32:e3:c2:8c:7c:25:fe:12:
                    eb:fd
                Exponent: 65537 (0x10001)
        X509v3 extensions:
            X509v3 Basic Constraints: 
                CA:FALSE
            Netscape Comment: 
                Easy-RSA Generated Certificate
            X509v3 Subject Key Identifier: 
                44:E5:17:A8:B5:D3:1C:03:43:94:71:0A:6B:29:CD:A8:35:A9:96:3B
            X509v3 Authority Key Identifier: 
                keyid:51:72:5A:C7:75:83:A3:39:2E:20:20:E0:70:09:2E:0B:D8:3E:8C:2B
                DirName:/C=RU/ST=RU/L=Yekaterinburg/O=ructf.org/OU=ructf/CN=ructf.org CA/name=DevVPN/emailAddress=dimmoborgir@gmail.com
                serial:CD:45:70:F1:6A:E7:FD:B6

            X509v3 Extended Key Usage: 
                TLS Web Client Authentication
            X509v3 Key Usage: 
                Digital Signature
    Signature Algorithm: sha256WithRSAEncryption
         95:bf:83:49:58:7e:10:eb:c5:11:7f:12:98:cc:2b:66:dd:4a:
         25:b3:38:61:46:18:88:f9:7e:3c:98:3e:fc:ff:f8:2d:f2:ff:
         d2:86:55:8f:f5:6e:4a:88:05:28:75:ec:2c:e0:0d:24:6c:ee:
         f0:c4:c2:62:75:74:fa:7d:c1:1c:8a:33:41:fc:6b:bf:40:e7:
         09:d1:b9:b2:9e:18:9b:4b:a1:9d:26:42:86:7e:8d:a9:d2:da:
         da:cc:04:db:f1:f7:71:19:da:87:26:c2:aa:87:7e:f0:c3:02:
         e9:51:9e:70:11:3c:68:fd:b7:b8:a4:86:1a:d3:26:9f:92:28:
         c8:0f:75:c1:06:dd:9a:29:a1:cb:3f:e3:2a:e7:bb:16:89:0b:
         36:dd:47:2e:15:5a:0e:4f:ae:95:0f:3f:bb:7d:b0:e1:3b:48:
         c9:98:cb:94:60:c8:71:ff:1d:91:16:5d:85:75:ea:f5:5e:1a:
         16:5a:4f:d4:5a:84:14:9a:b6:ec:24:b0:0d:fc:19:3d:6c:0d:
         85:f5:8b:23:7b:83:6a:68:e4:65:ce:62:03:03:db:e3:0f:ae:
         1c:7c:49:f4:59:78:e8:f1:48:ba:10:ec:d3:75:30:0d:f9:3f:
         0f:4b:de:ba:e0:bc:60:0a:e1:e8:89:20:50:fa:84:57:48:ba:
         ee:5d:f5:11
-----BEGIN CERTIFICATE-----
MIIFGzCCBAOgAwIBAgIBITANBgkqhkiG9w0BAQsFADCBpDELMAkGA1UEBhMCUlUx
CzAJBgNVBAgTAlJVMRYwFAYDVQQHEw1ZZWthdGVyaW5idXJnMRIwEAYDVQQKEwly
dWN0Zi5vcmcxDjAMBgNVBAsTBXJ1Y3RmMRUwEwYDVQQDEwxydWN0Zi5vcmcgQ0Ex
DzANBgNVBCkTBkRldlZQTjEkMCIGCSqGSIb3DQEJARYVZGltbW9ib3JnaXJAZ21h
aWwuY29tMB4XDTE2MDMyNTE5MjIxNloXDTI2MDMyMzE5MjIxNlowgZ0xCzAJBgNV
BAYTAlJVMQswCQYDVQQIEwJSVTEWMBQGA1UEBxMNWWVrYXRlcmluYnVyZzESMBAG
A1UEChMJcnVjdGYub3JnMQ4wDAYDVQQLEwVydWN0ZjEOMAwGA1UEAxMFZGV2MDIx
DzANBgNVBCkTBkRldlZQTjEkMCIGCSqGSIb3DQEJARYVZGltbW9ib3JnaXJAZ21h
aWwuY29tMIIBIjANBgkqhkiG9w0BAQEFAAOCAQ8AMIIBCgKCAQEAxMzcdxORsKJh
NYef9dHknp0CMzlJYLb1b3ZgQ6EHG65YAW+ZTqmIz5Zx2hQ0CYg968CIAFhkVwMZ
1lSS0zQozdR5yL9fm4TbHVCc3k997vFWGv0MZ0tg2nWTvTconQIj1flpgaFfgUv1
DGB7W72PPcclB6QbWJw5xIpdV8nwEjEWxACMxxLlus7qbG/Rtfzr0R59xOU6vzST
VT7lywpppON+U38rl8fnFGt8EAg8gITmgrM71cr6ORILMXMm0cUY44Dw8BxUsNIU
2OJvlUhU4JA94U9lO0RoJ1bBLXL4xmsiT5gHuWuCLuehg8ovNE6yVJ2A8seBMuPC
jHwl/hLr/QIDAQABo4IBWzCCAVcwCQYDVR0TBAIwADAtBglghkgBhvhCAQ0EIBYe
RWFzeS1SU0EgR2VuZXJhdGVkIENlcnRpZmljYXRlMB0GA1UdDgQWBBRE5ReotdMc
A0OUcQprKc2oNamWOzCB2QYDVR0jBIHRMIHOgBRRclrHdYOjOS4gIOBwCS4L2D6M
K6GBqqSBpzCBpDELMAkGA1UEBhMCUlUxCzAJBgNVBAgTAlJVMRYwFAYDVQQHEw1Z
ZWthdGVyaW5idXJnMRIwEAYDVQQKEwlydWN0Zi5vcmcxDjAMBgNVBAsTBXJ1Y3Rm
MRUwEwYDVQQDEwxydWN0Zi5vcmcgQ0ExDzANBgNVBCkTBkRldlZQTjEkMCIGCSqG
SIb3DQEJARYVZGltbW9ib3JnaXJAZ21haWwuY29tggkAzUVw8Wrn/bYwEwYDVR0l
BAwwCgYIKwYBBQUHAwIwCwYDVR0PBAQDAgeAMA0GCSqGSIb3DQEBCwUAA4IBAQCV
v4NJWH4Q68URfxKYzCtm3UolszhhRhiI+X48mD78//gt8v/ShlWP9W5KiAUodews
4A0kbO7wxMJidXT6fcEcijNB/Gu/QOcJ0bmynhibS6GdJkKGfo2p0trazATb8fdx
GdqHJsKqh37wwwLpUZ5wETxo/be4pIYa0yafkijID3XBBt2aKaHLP+Mq57sWiQs2
3UcuFVoOT66VDz+7fbDhO0jJmMuUYMhx/x2RFl2Fder1XhoWWk/UWoQUmrbsJLAN
/Bk9bA2F9Ysje4NqaORlzmIDA9vjD64cfEn0WXjo8Ui6EOzTdTAN+T8PS9664Lxg
CuHoiSBQ+oRXSLruXfUR
-----END CERTIFICATE-----
