Certificate:
    Data:
        Version: 3 (0x2)
        Serial Number: 38 (0x26)
    Signature Algorithm: sha256WithRSAEncryption
        Issuer: C=RU, ST=RU, L=Yekaterinburg, O=ructf.org, OU=ructf, CN=ructf.org CA/name=DevVPN/emailAddress=dimmoborgir@gmail.com
        Validity
            Not Before: Mar 25 19:22:18 2016 GMT
            Not After : Mar 23 19:22:18 2026 GMT
        Subject: C=RU, ST=RU, L=Yekaterinburg, O=ructf.org, OU=ructf, CN=dev07/name=DevVPN/emailAddress=dimmoborgir@gmail.com
        Subject Public Key Info:
            Public Key Algorithm: rsaEncryption
                Public-Key: (2048 bit)
                Modulus:
                    00:a2:d6:3d:1a:c1:2b:ab:b9:fd:f4:06:32:59:b7:
                    6f:a6:95:c3:47:ba:81:b9:35:0c:12:93:ea:55:b8:
                    d5:32:b5:f5:19:54:06:ab:bb:7b:4c:1d:9c:97:69:
                    b5:6f:76:e6:e9:cd:a4:a9:0e:1d:32:31:1b:3a:62:
                    ed:9e:fe:97:ee:35:27:fe:e4:4b:b3:5a:04:23:ba:
                    32:f7:75:b2:e7:03:58:61:2a:0d:4f:3f:39:be:da:
                    35:7d:e2:4e:df:8f:d5:22:3a:74:52:6d:02:31:fe:
                    4f:2d:18:19:ea:3f:c6:c0:b8:b5:5e:31:da:f9:77:
                    c4:41:a2:fe:ed:b7:2e:8c:8d:a5:67:18:a4:7a:63:
                    f7:e3:0c:93:71:f8:29:7d:49:c2:da:7d:b1:32:a9:
                    b1:cf:14:e9:d7:cc:cf:3b:9a:7d:31:55:1f:d7:8e:
                    2d:9a:c0:59:f0:6c:78:77:80:f8:93:f9:39:ae:25:
                    fd:50:6f:50:a3:71:be:c0:e9:3d:54:4f:8b:fe:7d:
                    ee:07:ee:c0:8c:3d:6e:18:a3:41:f3:37:06:22:df:
                    f4:12:59:db:1a:31:09:9b:30:5d:54:7c:83:5e:5a:
                    b4:59:f2:28:d3:79:5f:69:fa:fb:03:e6:ba:5d:78:
                    e8:3f:5b:72:8f:db:92:23:66:e3:94:e7:9c:d8:f7:
                    bd:dd
                Exponent: 65537 (0x10001)
        X509v3 extensions:
            X509v3 Basic Constraints: 
                CA:FALSE
            Netscape Comment: 
                Easy-RSA Generated Certificate
            X509v3 Subject Key Identifier: 
                10:F8:40:A0:8D:10:62:71:B2:6D:AB:BB:E9:E4:E1:32:24:0B:B1:BB
            X509v3 Authority Key Identifier: 
                keyid:51:72:5A:C7:75:83:A3:39:2E:20:20:E0:70:09:2E:0B:D8:3E:8C:2B
                DirName:/C=RU/ST=RU/L=Yekaterinburg/O=ructf.org/OU=ructf/CN=ructf.org CA/name=DevVPN/emailAddress=dimmoborgir@gmail.com
                serial:CD:45:70:F1:6A:E7:FD:B6

            X509v3 Extended Key Usage: 
                TLS Web Client Authentication
            X509v3 Key Usage: 
                Digital Signature
    Signature Algorithm: sha256WithRSAEncryption
         9d:d6:55:11:cb:7e:9d:96:9c:f0:cb:ba:6c:62:37:47:61:78:
         1e:0b:38:ab:fe:21:23:94:fa:1b:33:40:1d:d4:e5:1b:99:65:
         12:cf:c2:c2:97:c0:1b:f4:9b:b7:64:5f:84:01:71:db:22:09:
         46:30:d2:3d:fb:5e:c2:24:d7:e4:f2:17:b3:8c:60:c6:d4:01:
         d7:51:d7:0a:5a:ec:33:50:87:d9:38:d7:43:80:2e:6f:91:f4:
         76:6c:93:7d:a9:9b:5c:ed:2a:84:ba:27:77:67:93:38:62:91:
         ec:8c:89:bc:2c:67:9c:04:a3:a4:91:6e:13:0f:ed:d3:da:95:
         c1:e5:73:d4:56:38:92:58:b5:c8:bc:96:bc:6c:42:03:dc:2b:
         4e:61:06:0b:ed:77:f1:a9:5f:8f:c2:65:1a:95:ab:c9:2c:23:
         56:3f:91:18:39:74:fe:4e:6f:eb:e2:14:e8:87:4b:b5:be:77:
         77:fe:d6:37:5c:f0:f2:42:b1:41:c5:de:f3:d4:1b:1e:62:dd:
         39:b7:3d:27:0b:5e:00:20:10:b3:2e:db:1f:f1:85:ec:de:83:
         0f:d4:2b:8c:ae:60:76:c9:5c:a4:a5:ea:2a:3d:0b:17:2c:9a:
         41:71:cf:fc:9d:d1:e7:f1:1e:51:27:11:26:00:88:e9:51:0e:
         4f:d6:18:95
-----BEGIN CERTIFICATE-----
MIIFGzCCBAOgAwIBAgIBJjANBgkqhkiG9w0BAQsFADCBpDELMAkGA1UEBhMCUlUx
CzAJBgNVBAgTAlJVMRYwFAYDVQQHEw1ZZWthdGVyaW5idXJnMRIwEAYDVQQKEwly
dWN0Zi5vcmcxDjAMBgNVBAsTBXJ1Y3RmMRUwEwYDVQQDEwxydWN0Zi5vcmcgQ0Ex
DzANBgNVBCkTBkRldlZQTjEkMCIGCSqGSIb3DQEJARYVZGltbW9ib3JnaXJAZ21h
aWwuY29tMB4XDTE2MDMyNTE5MjIxOFoXDTI2MDMyMzE5MjIxOFowgZ0xCzAJBgNV
BAYTAlJVMQswCQYDVQQIEwJSVTEWMBQGA1UEBxMNWWVrYXRlcmluYnVyZzESMBAG
A1UEChMJcnVjdGYub3JnMQ4wDAYDVQQLEwVydWN0ZjEOMAwGA1UEAxMFZGV2MDcx
DzANBgNVBCkTBkRldlZQTjEkMCIGCSqGSIb3DQEJARYVZGltbW9ib3JnaXJAZ21h
aWwuY29tMIIBIjANBgkqhkiG9w0BAQEFAAOCAQ8AMIIBCgKCAQEAotY9GsErq7n9
9AYyWbdvppXDR7qBuTUMEpPqVbjVMrX1GVQGq7t7TB2cl2m1b3bm6c2kqQ4dMjEb
OmLtnv6X7jUn/uRLs1oEI7oy93Wy5wNYYSoNTz85vto1feJO34/VIjp0Um0CMf5P
LRgZ6j/GwLi1XjHa+XfEQaL+7bcujI2lZxikemP34wyTcfgpfUnC2n2xMqmxzxTp
18zPO5p9MVUf144tmsBZ8Gx4d4D4k/k5riX9UG9Qo3G+wOk9VE+L/n3uB+7AjD1u
GKNB8zcGIt/0ElnbGjEJmzBdVHyDXlq0WfIo03lfafr7A+a6XXjoP1tyj9uSI2bj
lOec2Pe93QIDAQABo4IBWzCCAVcwCQYDVR0TBAIwADAtBglghkgBhvhCAQ0EIBYe
RWFzeS1SU0EgR2VuZXJhdGVkIENlcnRpZmljYXRlMB0GA1UdDgQWBBQQ+ECgjRBi
cbJtq7vp5OEyJAuxuzCB2QYDVR0jBIHRMIHOgBRRclrHdYOjOS4gIOBwCS4L2D6M
K6GBqqSBpzCBpDELMAkGA1UEBhMCUlUxCzAJBgNVBAgTAlJVMRYwFAYDVQQHEw1Z
ZWthdGVyaW5idXJnMRIwEAYDVQQKEwlydWN0Zi5vcmcxDjAMBgNVBAsTBXJ1Y3Rm
MRUwEwYDVQQDEwxydWN0Zi5vcmcgQ0ExDzANBgNVBCkTBkRldlZQTjEkMCIGCSqG
SIb3DQEJARYVZGltbW9ib3JnaXJAZ21haWwuY29tggkAzUVw8Wrn/bYwEwYDVR0l
BAwwCgYIKwYBBQUHAwIwCwYDVR0PBAQDAgeAMA0GCSqGSIb3DQEBCwUAA4IBAQCd
1lURy36dlpzwy7psYjdHYXgeCzir/iEjlPobM0Ad1OUbmWUSz8LCl8Ab9Ju3ZF+E
AXHbIglGMNI9+17CJNfk8hezjGDG1AHXUdcKWuwzUIfZONdDgC5vkfR2bJN9qZtc
7SqEuid3Z5M4YpHsjIm8LGecBKOkkW4TD+3T2pXB5XPUVjiSWLXIvJa8bEID3CtO
YQYL7XfxqV+PwmUalavJLCNWP5EYOXT+Tm/r4hToh0u1vnd3/tY3XPDyQrFBxd7z
1BseYt05tz0nC14AIBCzLtsf8YXs3oMP1CuMrmB2yVykpeoqPQsXLJpBcc/8ndHn
8R5RJxEmAIjpUQ5P1hiV
-----END CERTIFICATE-----
