Certificate:
    Data:
        Version: 3 (0x2)
        Serial Number: 41 (0x29)
    Signature Algorithm: sha256WithRSAEncryption
        Issuer: C=RU, ST=RU, L=Yekaterinburg, O=ructf.org, OU=ructf, CN=ructf.org CA/name=DevVPN/emailAddress=dimmoborgir@gmail.com
        Validity
            Not Before: Mar 25 19:22:18 2016 GMT
            Not After : Mar 23 19:22:18 2026 GMT
        Subject: C=RU, ST=RU, L=Yekaterinburg, O=ructf.org, OU=ructf, CN=dev10/name=DevVPN/emailAddress=dimmoborgir@gmail.com
        Subject Public Key Info:
            Public Key Algorithm: rsaEncryption
                Public-Key: (2048 bit)
                Modulus:
                    00:cb:9c:63:16:ac:0d:7f:98:56:3f:fc:3c:a9:82:
                    56:88:d0:1d:6e:71:68:0c:92:a1:98:16:1d:e3:3f:
                    74:b6:b7:42:57:90:b0:25:f1:7e:71:08:4d:45:8a:
                    33:98:d3:65:ae:80:bb:8f:0d:8c:2e:9c:3e:df:cf:
                    7c:b9:a7:81:67:19:35:51:71:96:89:32:fc:62:8c:
                    79:2a:62:bb:57:04:c0:7b:8a:e5:2c:20:af:cd:15:
                    25:b7:10:28:02:34:29:c1:06:e9:11:dd:f3:48:8c:
                    77:1d:67:66:71:b2:b2:25:fc:82:bd:94:56:c5:57:
                    53:28:01:9e:19:cd:d6:fa:17:cf:f1:86:05:cd:32:
                    69:bf:b5:f4:6a:7f:de:cd:57:51:37:e6:66:ee:2b:
                    bc:6f:36:bf:cc:38:cf:d9:b0:38:7f:4a:79:f5:84:
                    49:30:2a:1e:5a:ab:24:a4:b5:8d:79:60:58:7d:26:
                    99:81:26:c9:f1:91:04:03:44:6c:94:3a:5d:52:c7:
                    98:e5:a6:41:32:a6:69:13:3c:bc:45:89:3e:29:d4:
                    cd:a9:67:b0:3e:c6:53:04:69:83:a1:2e:db:c9:19:
                    27:c1:26:89:f3:10:95:8d:ec:9e:b7:d5:95:3d:92:
                    aa:da:3f:de:85:64:60:bf:2d:0c:f2:42:15:bb:78:
                    da:d7
                Exponent: 65537 (0x10001)
        X509v3 extensions:
            X509v3 Basic Constraints: 
                CA:FALSE
            Netscape Comment: 
                Easy-RSA Generated Certificate
            X509v3 Subject Key Identifier: 
                2D:FF:D1:6B:F4:4F:3E:E6:D9:11:16:6B:8F:00:A3:78:28:46:62:7B
            X509v3 Authority Key Identifier: 
                keyid:51:72:5A:C7:75:83:A3:39:2E:20:20:E0:70:09:2E:0B:D8:3E:8C:2B
                DirName:/C=RU/ST=RU/L=Yekaterinburg/O=ructf.org/OU=ructf/CN=ructf.org CA/name=DevVPN/emailAddress=dimmoborgir@gmail.com
                serial:CD:45:70:F1:6A:E7:FD:B6

            X509v3 Extended Key Usage: 
                TLS Web Client Authentication
            X509v3 Key Usage: 
                Digital Signature
    Signature Algorithm: sha256WithRSAEncryption
         98:42:14:0a:92:84:71:80:d0:bc:5c:9a:ef:68:bc:32:f2:e4:
         fe:71:50:4c:78:a3:4c:5e:50:9a:98:63:10:bb:f1:34:d7:63:
         e6:43:bf:18:4a:c1:26:e7:77:c8:ab:10:46:8c:54:25:6f:96:
         b2:0b:b5:34:d1:9c:bc:a2:6a:d1:32:f6:aa:d3:5a:03:56:46:
         91:be:da:7d:60:5a:72:df:1d:23:a3:fb:12:e1:a1:ca:59:cb:
         8a:31:1e:0a:aa:95:94:88:d5:70:8c:f5:0b:41:e5:84:a6:25:
         7c:6d:f1:89:34:8e:74:12:de:b1:7d:54:47:9c:3c:89:8d:39:
         53:08:5b:98:71:eb:71:e4:53:ca:68:62:7b:9f:84:a4:3a:85:
         c1:55:11:62:eb:4a:4b:2f:eb:e9:5d:22:b7:80:08:82:57:51:
         8e:f0:e0:23:d0:73:9a:4d:04:4c:a5:98:33:6e:68:9f:4e:9b:
         0f:ab:61:08:07:f3:49:0a:4d:15:6d:d0:e5:16:c3:5b:70:2a:
         34:77:a1:7f:04:e8:53:9a:69:44:9c:dc:43:a6:23:87:02:da:
         31:07:40:93:40:1e:51:d7:e3:bd:95:4c:f1:f0:e9:53:ca:ae:
         13:84:34:77:92:6c:bd:d3:9b:7f:18:c7:58:7e:a4:b7:1d:8b:
         30:95:b2:23
-----BEGIN CERTIFICATE-----
MIIFGzCCBAOgAwIBAgIBKTANBgkqhkiG9w0BAQsFADCBpDELMAkGA1UEBhMCUlUx
CzAJBgNVBAgTAlJVMRYwFAYDVQQHEw1ZZWthdGVyaW5idXJnMRIwEAYDVQQKEwly
dWN0Zi5vcmcxDjAMBgNVBAsTBXJ1Y3RmMRUwEwYDVQQDEwxydWN0Zi5vcmcgQ0Ex
DzANBgNVBCkTBkRldlZQTjEkMCIGCSqGSIb3DQEJARYVZGltbW9ib3JnaXJAZ21h
aWwuY29tMB4XDTE2MDMyNTE5MjIxOFoXDTI2MDMyMzE5MjIxOFowgZ0xCzAJBgNV
BAYTAlJVMQswCQYDVQQIEwJSVTEWMBQGA1UEBxMNWWVrYXRlcmluYnVyZzESMBAG
A1UEChMJcnVjdGYub3JnMQ4wDAYDVQQLEwVydWN0ZjEOMAwGA1UEAxMFZGV2MTAx
DzANBgNVBCkTBkRldlZQTjEkMCIGCSqGSIb3DQEJARYVZGltbW9ib3JnaXJAZ21h
aWwuY29tMIIBIjANBgkqhkiG9w0BAQEFAAOCAQ8AMIIBCgKCAQEAy5xjFqwNf5hW
P/w8qYJWiNAdbnFoDJKhmBYd4z90trdCV5CwJfF+cQhNRYozmNNlroC7jw2MLpw+
3898uaeBZxk1UXGWiTL8Yox5KmK7VwTAe4rlLCCvzRUltxAoAjQpwQbpEd3zSIx3
HWdmcbKyJfyCvZRWxVdTKAGeGc3W+hfP8YYFzTJpv7X0an/ezVdRN+Zm7iu8bza/
zDjP2bA4f0p59YRJMCoeWqskpLWNeWBYfSaZgSbJ8ZEEA0RslDpdUseY5aZBMqZp
Ezy8RYk+KdTNqWewPsZTBGmDoS7byRknwSaJ8xCVjeyet9WVPZKq2j/ehWRgvy0M
8kIVu3ja1wIDAQABo4IBWzCCAVcwCQYDVR0TBAIwADAtBglghkgBhvhCAQ0EIBYe
RWFzeS1SU0EgR2VuZXJhdGVkIENlcnRpZmljYXRlMB0GA1UdDgQWBBQt/9Fr9E8+
5tkRFmuPAKN4KEZiezCB2QYDVR0jBIHRMIHOgBRRclrHdYOjOS4gIOBwCS4L2D6M
K6GBqqSBpzCBpDELMAkGA1UEBhMCUlUxCzAJBgNVBAgTAlJVMRYwFAYDVQQHEw1Z
ZWthdGVyaW5idXJnMRIwEAYDVQQKEwlydWN0Zi5vcmcxDjAMBgNVBAsTBXJ1Y3Rm
MRUwEwYDVQQDEwxydWN0Zi5vcmcgQ0ExDzANBgNVBCkTBkRldlZQTjEkMCIGCSqG
SIb3DQEJARYVZGltbW9ib3JnaXJAZ21haWwuY29tggkAzUVw8Wrn/bYwEwYDVR0l
BAwwCgYIKwYBBQUHAwIwCwYDVR0PBAQDAgeAMA0GCSqGSIb3DQEBCwUAA4IBAQCY
QhQKkoRxgNC8XJrvaLwy8uT+cVBMeKNMXlCamGMQu/E012PmQ78YSsEm53fIqxBG
jFQlb5ayC7U00Zy8omrRMvaq01oDVkaRvtp9YFpy3x0jo/sS4aHKWcuKMR4KqpWU
iNVwjPULQeWEpiV8bfGJNI50Et6xfVRHnDyJjTlTCFuYcetx5FPKaGJ7n4SkOoXB
VRFi60pLL+vpXSK3gAiCV1GO8OAj0HOaTQRMpZgzbmifTpsPq2EIB/NJCk0VbdDl
FsNbcCo0d6F/BOhTmmlEnNxDpiOHAtoxB0CTQB5R1+O9lUzx8OlTyq4ThDR3kmy9
05t/GMdYfqS3HYswlbIj
-----END CERTIFICATE-----
