Certificate:
    Data:
        Version: 3 (0x2)
        Serial Number: 53 (0x35)
    Signature Algorithm: sha256WithRSAEncryption
        Issuer: C=RU, ST=RU, L=Yekaterinburg, O=ructf.org, OU=ructf, CN=ructf.org CA/name=DevVPN/emailAddress=dimmoborgir@gmail.com
        Validity
            Not Before: Mar 25 19:22:22 2016 GMT
            Not After : Mar 23 19:22:22 2026 GMT
        Subject: C=RU, ST=RU, L=Yekaterinburg, O=ructf.org, OU=ructf, CN=dev22/name=DevVPN/emailAddress=dimmoborgir@gmail.com
        Subject Public Key Info:
            Public Key Algorithm: rsaEncryption
                Public-Key: (2048 bit)
                Modulus:
                    00:da:21:8c:bd:7e:26:64:1b:a8:5b:4a:e3:08:a5:
                    db:e7:1d:af:e2:e6:2f:6a:dc:13:54:fe:fa:56:39:
                    f0:ac:57:1f:5d:dc:31:c8:b1:7a:2d:e4:33:b0:57:
                    56:6c:f7:1a:77:58:19:66:fd:10:ea:60:2a:d1:6d:
                    ca:e0:fc:fd:30:be:cd:cb:5c:26:b5:2a:41:a4:24:
                    f9:f8:c7:f7:52:88:c6:b2:27:e8:61:bf:aa:5a:fd:
                    6e:c7:40:00:be:be:68:e0:13:5d:8e:ac:e6:69:62:
                    8a:95:18:95:f4:43:4c:ae:a0:e6:59:3e:dc:75:1a:
                    ac:06:33:5f:92:3a:e5:77:3f:3a:bf:5c:65:3b:ca:
                    b3:bd:8d:0c:d1:41:a8:a2:92:c1:08:98:75:79:12:
                    2d:e0:00:e6:ee:2f:72:d6:f1:df:b6:60:10:db:20:
                    b6:5b:80:0e:18:2b:a0:0d:4c:1f:80:07:75:c0:6b:
                    0d:75:ea:78:ea:f9:67:f1:35:90:69:50:e8:01:ee:
                    14:43:e1:8a:4c:dd:54:29:11:50:31:d0:eb:93:57:
                    47:ab:2a:01:bb:1d:86:3e:51:24:0a:3c:29:cf:67:
                    ff:4e:7a:b1:fb:2c:9d:0f:1e:16:2a:99:3d:7d:74:
                    9b:39:df:cc:26:ab:6c:f8:ae:1c:ad:ca:e4:d9:9e:
                    d4:91
                Exponent: 65537 (0x10001)
        X509v3 extensions:
            X509v3 Basic Constraints: 
                CA:FALSE
            Netscape Comment: 
                Easy-RSA Generated Certificate
            X509v3 Subject Key Identifier: 
                7B:E3:DA:86:57:75:EF:3F:F9:45:2D:10:65:07:6B:6D:E8:36:C9:32
            X509v3 Authority Key Identifier: 
                keyid:51:72:5A:C7:75:83:A3:39:2E:20:20:E0:70:09:2E:0B:D8:3E:8C:2B
                DirName:/C=RU/ST=RU/L=Yekaterinburg/O=ructf.org/OU=ructf/CN=ructf.org CA/name=DevVPN/emailAddress=dimmoborgir@gmail.com
                serial:CD:45:70:F1:6A:E7:FD:B6

            X509v3 Extended Key Usage: 
                TLS Web Client Authentication
            X509v3 Key Usage: 
                Digital Signature
    Signature Algorithm: sha256WithRSAEncryption
         94:b6:6f:02:9f:ad:8f:dd:95:10:03:71:ae:85:9f:a7:5b:3c:
         a4:47:9a:73:8f:a9:5c:b1:13:9d:35:30:cd:39:88:63:4c:73:
         55:c2:f9:c1:4b:6c:07:f1:2a:57:a9:7f:e8:32:77:15:7e:35:
         79:82:a5:ab:3f:b6:5d:02:5a:fc:ff:57:58:c0:6b:7d:5d:f4:
         c5:70:b6:9a:a1:fe:dc:0e:80:f7:c2:2d:02:9c:97:17:03:40:
         ac:d4:db:c3:6e:90:5c:b1:2f:3e:61:2f:7c:7b:6d:1c:3a:a1:
         02:e0:ef:66:40:a9:1c:66:c5:a2:7c:c7:96:3e:a2:e5:65:59:
         45:68:f4:be:df:e1:40:c2:4c:2b:98:ef:02:b0:ff:53:0d:97:
         27:ae:97:86:00:55:7f:12:79:3a:50:d3:4b:4b:cf:4d:d2:2a:
         d3:14:d2:a2:7f:7d:48:81:ca:73:39:ad:ed:96:f3:f1:66:05:
         b8:89:ce:66:a6:6e:a8:ea:27:6d:f2:77:ce:a9:c3:4c:dd:c5:
         4a:84:ae:96:78:27:dd:cf:37:d0:12:93:de:61:8e:33:e7:68:
         47:35:7e:68:bc:fb:03:4b:67:fd:cc:ba:c8:57:53:6b:28:64:
         50:41:18:ba:ff:8b:90:e6:a8:1c:58:25:d5:e3:07:75:69:48:
         8c:42:ac:49
-----BEGIN CERTIFICATE-----
MIIFGzCCBAOgAwIBAgIBNTANBgkqhkiG9w0BAQsFADCBpDELMAkGA1UEBhMCUlUx
CzAJBgNVBAgTAlJVMRYwFAYDVQQHEw1ZZWthdGVyaW5idXJnMRIwEAYDVQQKEwly
dWN0Zi5vcmcxDjAMBgNVBAsTBXJ1Y3RmMRUwEwYDVQQDEwxydWN0Zi5vcmcgQ0Ex
DzANBgNVBCkTBkRldlZQTjEkMCIGCSqGSIb3DQEJARYVZGltbW9ib3JnaXJAZ21h
aWwuY29tMB4XDTE2MDMyNTE5MjIyMloXDTI2MDMyMzE5MjIyMlowgZ0xCzAJBgNV
BAYTAlJVMQswCQYDVQQIEwJSVTEWMBQGA1UEBxMNWWVrYXRlcmluYnVyZzESMBAG
A1UEChMJcnVjdGYub3JnMQ4wDAYDVQQLEwVydWN0ZjEOMAwGA1UEAxMFZGV2MjIx
DzANBgNVBCkTBkRldlZQTjEkMCIGCSqGSIb3DQEJARYVZGltbW9ib3JnaXJAZ21h
aWwuY29tMIIBIjANBgkqhkiG9w0BAQEFAAOCAQ8AMIIBCgKCAQEA2iGMvX4mZBuo
W0rjCKXb5x2v4uYvatwTVP76VjnwrFcfXdwxyLF6LeQzsFdWbPcad1gZZv0Q6mAq
0W3K4Pz9ML7Ny1wmtSpBpCT5+Mf3UojGsifoYb+qWv1ux0AAvr5o4BNdjqzmaWKK
lRiV9ENMrqDmWT7cdRqsBjNfkjrldz86v1xlO8qzvY0M0UGoopLBCJh1eRIt4ADm
7i9y1vHftmAQ2yC2W4AOGCugDUwfgAd1wGsNdep46vln8TWQaVDoAe4UQ+GKTN1U
KRFQMdDrk1dHqyoBux2GPlEkCjwpz2f/Tnqx+yydDx4WKpk9fXSbOd/MJqts+K4c
rcrk2Z7UkQIDAQABo4IBWzCCAVcwCQYDVR0TBAIwADAtBglghkgBhvhCAQ0EIBYe
RWFzeS1SU0EgR2VuZXJhdGVkIENlcnRpZmljYXRlMB0GA1UdDgQWBBR749qGV3Xv
P/lFLRBlB2tt6DbJMjCB2QYDVR0jBIHRMIHOgBRRclrHdYOjOS4gIOBwCS4L2D6M
K6GBqqSBpzCBpDELMAkGA1UEBhMCUlUxCzAJBgNVBAgTAlJVMRYwFAYDVQQHEw1Z
ZWthdGVyaW5idXJnMRIwEAYDVQQKEwlydWN0Zi5vcmcxDjAMBgNVBAsTBXJ1Y3Rm
MRUwEwYDVQQDEwxydWN0Zi5vcmcgQ0ExDzANBgNVBCkTBkRldlZQTjEkMCIGCSqG
SIb3DQEJARYVZGltbW9ib3JnaXJAZ21haWwuY29tggkAzUVw8Wrn/bYwEwYDVR0l
BAwwCgYIKwYBBQUHAwIwCwYDVR0PBAQDAgeAMA0GCSqGSIb3DQEBCwUAA4IBAQCU
tm8Cn62P3ZUQA3GuhZ+nWzykR5pzj6lcsROdNTDNOYhjTHNVwvnBS2wH8SpXqX/o
MncVfjV5gqWrP7ZdAlr8/1dYwGt9XfTFcLaaof7cDoD3wi0CnJcXA0Cs1NvDbpBc
sS8+YS98e20cOqEC4O9mQKkcZsWifMeWPqLlZVlFaPS+3+FAwkwrmO8CsP9TDZcn
rpeGAFV/Enk6UNNLS89N0irTFNKif31IgcpzOa3tlvPxZgW4ic5mpm6o6idt8nfO
qcNM3cVKhK6WeCfdzzfQEpPeYY4z52hHNX5ovPsDS2f9zLrIV1NrKGRQQRi6/4uQ
5qgcWCXV4wd1aUiMQqxJ
-----END CERTIFICATE-----
