Certificate:
    Data:
        Version: 3 (0x2)
        Serial Number: 54 (0x36)
    Signature Algorithm: sha256WithRSAEncryption
        Issuer: C=RU, ST=RU, L=Yekaterinburg, O=ructf.org, OU=ructf, CN=ructf.org CA/name=DevVPN/emailAddress=dimmoborgir@gmail.com
        Validity
            Not Before: Mar 25 19:22:22 2016 GMT
            Not After : Mar 23 19:22:22 2026 GMT
        Subject: C=RU, ST=RU, L=Yekaterinburg, O=ructf.org, OU=ructf, CN=dev23/name=DevVPN/emailAddress=dimmoborgir@gmail.com
        Subject Public Key Info:
            Public Key Algorithm: rsaEncryption
                Public-Key: (2048 bit)
                Modulus:
                    00:c7:35:69:ed:49:76:84:7d:08:17:3f:3c:d9:cf:
                    1a:26:80:c0:74:af:42:a3:8e:c5:d6:57:03:6c:7a:
                    6b:ce:d3:fd:8b:9d:e2:46:6e:bd:77:33:8e:f8:e3:
                    cb:ab:1d:b3:df:2c:33:25:cc:c2:fe:6e:82:d8:1b:
                    db:c7:12:3b:a6:57:4e:57:9f:ba:67:66:c0:b9:b6:
                    04:e7:29:72:fe:4d:49:4c:69:2b:01:36:42:23:24:
                    00:52:fa:bd:7a:1e:f9:17:79:8b:aa:20:d0:6a:86:
                    85:1c:a4:ac:42:14:9b:32:60:c3:a1:67:83:71:70:
                    4a:63:bc:e7:07:2a:f3:db:6c:9c:a4:70:54:2c:80:
                    6a:1a:98:8c:e1:4c:c8:12:98:cf:9b:d4:d4:ad:0c:
                    3f:a2:cb:a2:39:27:82:45:ce:16:51:32:5b:be:a4:
                    a1:f4:8f:cc:64:70:cb:ca:07:62:21:4f:bb:54:63:
                    e3:2f:a9:b7:35:57:3c:d4:b0:20:93:9e:76:5f:f8:
                    87:34:0f:8d:e7:36:14:7c:27:c1:25:72:82:6f:79:
                    df:05:73:91:d7:2a:54:2d:d0:12:90:56:3e:d8:13:
                    5d:e3:79:f8:d7:57:bd:73:bd:14:48:ac:ce:51:a6:
                    6c:de:f9:aa:57:48:98:df:c7:e9:a6:75:44:06:01:
                    d4:3d
                Exponent: 65537 (0x10001)
        X509v3 extensions:
            X509v3 Basic Constraints: 
                CA:FALSE
            Netscape Comment: 
                Easy-RSA Generated Certificate
            X509v3 Subject Key Identifier: 
                5C:E2:B6:E7:C6:1F:EB:2B:34:6E:CE:BD:5E:37:59:F5:A9:DE:27:63
            X509v3 Authority Key Identifier: 
                keyid:51:72:5A:C7:75:83:A3:39:2E:20:20:E0:70:09:2E:0B:D8:3E:8C:2B
                DirName:/C=RU/ST=RU/L=Yekaterinburg/O=ructf.org/OU=ructf/CN=ructf.org CA/name=DevVPN/emailAddress=dimmoborgir@gmail.com
                serial:CD:45:70:F1:6A:E7:FD:B6

            X509v3 Extended Key Usage: 
                TLS Web Client Authentication
            X509v3 Key Usage: 
                Digital Signature
    Signature Algorithm: sha256WithRSAEncryption
         4c:0a:7f:90:66:f5:47:27:d2:48:09:76:9c:3f:bc:cf:a1:a2:
         dc:98:e8:4d:19:8d:eb:98:a8:12:ce:2d:75:2e:aa:4e:57:c3:
         35:bf:e9:22:93:28:21:f5:30:8e:25:87:fe:03:d9:41:b1:9c:
         df:2a:86:22:b9:3e:4a:b9:5d:bc:36:d5:96:8e:01:f0:6d:59:
         78:51:87:61:bb:25:2b:41:37:52:7e:58:cc:c0:34:78:37:fc:
         d3:3c:4b:55:05:ac:ed:36:a7:94:fe:64:c8:5b:8d:5c:45:85:
         2c:98:79:7a:c6:b9:5e:97:7f:48:9c:c3:fb:b0:3b:fb:91:0a:
         2e:3b:92:24:b6:f8:28:3a:d4:e6:f5:81:8c:c9:3b:b9:3f:3b:
         7d:14:20:86:26:70:3b:45:69:a3:d6:6d:92:93:89:1c:de:32:
         31:e2:bc:88:93:6a:e2:3f:d5:3e:47:63:9e:e1:a0:e7:a5:fb:
         f3:25:dd:75:49:7c:fd:1a:94:61:88:8a:67:6e:83:d4:e0:8a:
         c7:dd:48:2f:76:92:97:af:3f:5c:be:83:3e:9e:25:31:44:9b:
         f9:e4:03:58:ee:44:8f:5c:fc:50:b0:fc:0b:c7:5f:cb:c3:84:
         a9:73:7d:83:76:17:d6:2c:1f:64:19:e1:c7:43:10:5e:3a:5e:
         64:6d:0f:19
-----BEGIN CERTIFICATE-----
MIIFGzCCBAOgAwIBAgIBNjANBgkqhkiG9w0BAQsFADCBpDELMAkGA1UEBhMCUlUx
CzAJBgNVBAgTAlJVMRYwFAYDVQQHEw1ZZWthdGVyaW5idXJnMRIwEAYDVQQKEwly
dWN0Zi5vcmcxDjAMBgNVBAsTBXJ1Y3RmMRUwEwYDVQQDEwxydWN0Zi5vcmcgQ0Ex
DzANBgNVBCkTBkRldlZQTjEkMCIGCSqGSIb3DQEJARYVZGltbW9ib3JnaXJAZ21h
aWwuY29tMB4XDTE2MDMyNTE5MjIyMloXDTI2MDMyMzE5MjIyMlowgZ0xCzAJBgNV
BAYTAlJVMQswCQYDVQQIEwJSVTEWMBQGA1UEBxMNWWVrYXRlcmluYnVyZzESMBAG
A1UEChMJcnVjdGYub3JnMQ4wDAYDVQQLEwVydWN0ZjEOMAwGA1UEAxMFZGV2MjMx
DzANBgNVBCkTBkRldlZQTjEkMCIGCSqGSIb3DQEJARYVZGltbW9ib3JnaXJAZ21h
aWwuY29tMIIBIjANBgkqhkiG9w0BAQEFAAOCAQ8AMIIBCgKCAQEAxzVp7Ul2hH0I
Fz882c8aJoDAdK9Co47F1lcDbHprztP9i53iRm69dzOO+OPLqx2z3ywzJczC/m6C
2BvbxxI7pldOV5+6Z2bAubYE5yly/k1JTGkrATZCIyQAUvq9eh75F3mLqiDQaoaF
HKSsQhSbMmDDoWeDcXBKY7znByrz22ycpHBULIBqGpiM4UzIEpjPm9TUrQw/osui
OSeCRc4WUTJbvqSh9I/MZHDLygdiIU+7VGPjL6m3NVc81LAgk552X/iHNA+N5zYU
fCfBJXKCb3nfBXOR1ypULdASkFY+2BNd43n411e9c70USKzOUaZs3vmqV0iY38fp
pnVEBgHUPQIDAQABo4IBWzCCAVcwCQYDVR0TBAIwADAtBglghkgBhvhCAQ0EIBYe
RWFzeS1SU0EgR2VuZXJhdGVkIENlcnRpZmljYXRlMB0GA1UdDgQWBBRc4rbnxh/r
KzRuzr1eN1n1qd4nYzCB2QYDVR0jBIHRMIHOgBRRclrHdYOjOS4gIOBwCS4L2D6M
K6GBqqSBpzCBpDELMAkGA1UEBhMCUlUxCzAJBgNVBAgTAlJVMRYwFAYDVQQHEw1Z
ZWthdGVyaW5idXJnMRIwEAYDVQQKEwlydWN0Zi5vcmcxDjAMBgNVBAsTBXJ1Y3Rm
MRUwEwYDVQQDEwxydWN0Zi5vcmcgQ0ExDzANBgNVBCkTBkRldlZQTjEkMCIGCSqG
SIb3DQEJARYVZGltbW9ib3JnaXJAZ21haWwuY29tggkAzUVw8Wrn/bYwEwYDVR0l
BAwwCgYIKwYBBQUHAwIwCwYDVR0PBAQDAgeAMA0GCSqGSIb3DQEBCwUAA4IBAQBM
Cn+QZvVHJ9JICXacP7zPoaLcmOhNGY3rmKgSzi11LqpOV8M1v+kikygh9TCOJYf+
A9lBsZzfKoYiuT5KuV28NtWWjgHwbVl4UYdhuyUrQTdSfljMwDR4N/zTPEtVBazt
NqeU/mTIW41cRYUsmHl6xrlel39InMP7sDv7kQouO5IktvgoOtTm9YGMyTu5Pzt9
FCCGJnA7RWmj1m2Sk4kc3jIx4ryIk2riP9U+R2Oe4aDnpfvzJd11SXz9GpRhiIpn
boPU4IrH3UgvdpKXrz9cvoM+niUxRJv55ANY7kSPXPxQsPwLx1/Lw4Spc32DdhfW
LB9kGeHHQxBeOl5kbQ8Z
-----END CERTIFICATE-----
