Certificate:
    Data:
        Version: 3 (0x2)
        Serial Number: 56 (0x38)
    Signature Algorithm: sha256WithRSAEncryption
        Issuer: C=RU, ST=RU, L=Yekaterinburg, O=ructf.org, OU=ructf, CN=ructf.org CA/name=DevVPN/emailAddress=dimmoborgir@gmail.com
        Validity
            Not Before: Mar 25 19:22:23 2016 GMT
            Not After : Mar 23 19:22:23 2026 GMT
        Subject: C=RU, ST=RU, L=Yekaterinburg, O=ructf.org, OU=ructf, CN=dev25/name=DevVPN/emailAddress=dimmoborgir@gmail.com
        Subject Public Key Info:
            Public Key Algorithm: rsaEncryption
                Public-Key: (2048 bit)
                Modulus:
                    00:cc:0b:e9:77:e4:40:f4:7f:5d:b6:8d:29:28:97:
                    27:d0:14:1f:a0:db:96:ed:bd:7a:68:a4:ed:61:9a:
                    dd:37:2c:30:a8:bd:81:82:5a:4f:d9:a1:ed:f1:cf:
                    72:a1:11:32:bb:50:1d:3b:71:f0:81:53:aa:e2:9a:
                    36:e1:b6:17:c6:c0:aa:02:fa:fd:91:55:ef:57:56:
                    87:3c:20:c6:fa:f9:3f:37:49:8a:ba:99:30:87:9c:
                    db:26:0a:e1:b7:11:dd:3c:18:28:9f:52:15:57:a0:
                    0b:6b:90:67:3b:7f:ec:16:91:ea:83:cd:0a:65:8e:
                    91:72:f9:28:48:fc:77:e5:3a:aa:5b:c7:03:f7:0a:
                    55:35:00:c1:c7:8a:25:be:2d:36:ec:a6:11:c7:83:
                    a9:a7:b1:4e:70:40:60:9e:1d:7c:ce:90:47:95:36:
                    f3:11:14:ab:89:16:d1:47:9b:6f:49:1a:b7:85:90:
                    61:38:7c:1c:90:77:66:5b:ac:46:52:56:ce:4d:14:
                    07:8e:58:69:c4:11:5d:4d:00:02:e6:26:bd:9f:91:
                    40:8f:e7:8f:db:bf:3b:c3:b0:06:3b:56:41:44:4b:
                    73:5a:3b:97:b9:1d:15:f0:4b:af:bc:dd:fa:99:a5:
                    af:8a:0d:6f:1f:74:ea:85:fe:a5:55:c6:ba:3d:3d:
                    48:dd
                Exponent: 65537 (0x10001)
        X509v3 extensions:
            X509v3 Basic Constraints: 
                CA:FALSE
            Netscape Comment: 
                Easy-RSA Generated Certificate
            X509v3 Subject Key Identifier: 
                26:25:EF:A3:02:1F:5E:36:D9:86:58:D9:ED:24:2F:AF:36:15:59:CB
            X509v3 Authority Key Identifier: 
                keyid:51:72:5A:C7:75:83:A3:39:2E:20:20:E0:70:09:2E:0B:D8:3E:8C:2B
                DirName:/C=RU/ST=RU/L=Yekaterinburg/O=ructf.org/OU=ructf/CN=ructf.org CA/name=DevVPN/emailAddress=dimmoborgir@gmail.com
                serial:CD:45:70:F1:6A:E7:FD:B6

            X509v3 Extended Key Usage: 
                TLS Web Client Authentication
            X509v3 Key Usage: 
                Digital Signature
    Signature Algorithm: sha256WithRSAEncryption
         4a:05:06:8d:c7:3f:99:a8:19:25:03:25:42:1a:74:61:48:0e:
         da:17:ab:23:2a:49:8e:83:81:7d:f6:3d:65:e3:c6:7b:30:eb:
         eb:1b:e9:1b:50:d9:6f:57:04:ff:b7:d6:84:73:29:15:81:68:
         34:57:f8:c2:f4:fc:3c:08:72:ff:41:5f:d2:54:62:4e:38:bc:
         97:0a:d2:36:ca:76:b6:c0:d9:65:61:a0:c7:15:52:0b:6b:43:
         c2:b1:ba:ce:fe:72:86:af:0a:50:39:20:e1:a9:bd:4d:60:cf:
         42:3b:b8:b5:8a:de:f7:db:70:6a:9f:d8:08:64:01:69:c0:99:
         95:98:81:fb:29:24:bc:d3:8e:45:3c:52:aa:6a:ab:6d:44:cf:
         37:e3:ce:30:16:97:c1:1f:cf:33:6e:79:60:9d:9c:1a:3a:a5:
         9b:20:ba:63:ad:ba:bf:49:08:40:bf:d9:be:09:3b:1f:f6:65:
         13:0f:a6:b5:f1:af:a4:2a:5a:9b:b3:db:2c:1a:b1:3c:9b:d0:
         4a:4a:44:32:61:35:3e:35:54:ab:c5:52:8c:41:d2:27:35:20:
         75:12:6a:35:9c:6c:0c:a5:88:e7:35:00:ec:49:1f:ba:3e:1e:
         27:a9:4c:4d:7f:55:f4:55:34:4f:88:b9:6d:53:57:9e:27:ad:
         6a:6b:38:82
-----BEGIN CERTIFICATE-----
MIIFGzCCBAOgAwIBAgIBODANBgkqhkiG9w0BAQsFADCBpDELMAkGA1UEBhMCUlUx
CzAJBgNVBAgTAlJVMRYwFAYDVQQHEw1ZZWthdGVyaW5idXJnMRIwEAYDVQQKEwly
dWN0Zi5vcmcxDjAMBgNVBAsTBXJ1Y3RmMRUwEwYDVQQDEwxydWN0Zi5vcmcgQ0Ex
DzANBgNVBCkTBkRldlZQTjEkMCIGCSqGSIb3DQEJARYVZGltbW9ib3JnaXJAZ21h
aWwuY29tMB4XDTE2MDMyNTE5MjIyM1oXDTI2MDMyMzE5MjIyM1owgZ0xCzAJBgNV
BAYTAlJVMQswCQYDVQQIEwJSVTEWMBQGA1UEBxMNWWVrYXRlcmluYnVyZzESMBAG
A1UEChMJcnVjdGYub3JnMQ4wDAYDVQQLEwVydWN0ZjEOMAwGA1UEAxMFZGV2MjUx
DzANBgNVBCkTBkRldlZQTjEkMCIGCSqGSIb3DQEJARYVZGltbW9ib3JnaXJAZ21h
aWwuY29tMIIBIjANBgkqhkiG9w0BAQEFAAOCAQ8AMIIBCgKCAQEAzAvpd+RA9H9d
to0pKJcn0BQfoNuW7b16aKTtYZrdNywwqL2BglpP2aHt8c9yoREyu1AdO3HwgVOq
4po24bYXxsCqAvr9kVXvV1aHPCDG+vk/N0mKupkwh5zbJgrhtxHdPBgon1IVV6AL
a5BnO3/sFpHqg80KZY6RcvkoSPx35TqqW8cD9wpVNQDBx4olvi027KYRx4Opp7FO
cEBgnh18zpBHlTbzERSriRbRR5tvSRq3hZBhOHwckHdmW6xGUlbOTRQHjlhpxBFd
TQAC5ia9n5FAj+eP2787w7AGO1ZBREtzWjuXuR0V8EuvvN36maWvig1vH3Tqhf6l
Vca6PT1I3QIDAQABo4IBWzCCAVcwCQYDVR0TBAIwADAtBglghkgBhvhCAQ0EIBYe
RWFzeS1SU0EgR2VuZXJhdGVkIENlcnRpZmljYXRlMB0GA1UdDgQWBBQmJe+jAh9e
NtmGWNntJC+vNhVZyzCB2QYDVR0jBIHRMIHOgBRRclrHdYOjOS4gIOBwCS4L2D6M
K6GBqqSBpzCBpDELMAkGA1UEBhMCUlUxCzAJBgNVBAgTAlJVMRYwFAYDVQQHEw1Z
ZWthdGVyaW5idXJnMRIwEAYDVQQKEwlydWN0Zi5vcmcxDjAMBgNVBAsTBXJ1Y3Rm
MRUwEwYDVQQDEwxydWN0Zi5vcmcgQ0ExDzANBgNVBCkTBkRldlZQTjEkMCIGCSqG
SIb3DQEJARYVZGltbW9ib3JnaXJAZ21haWwuY29tggkAzUVw8Wrn/bYwEwYDVR0l
BAwwCgYIKwYBBQUHAwIwCwYDVR0PBAQDAgeAMA0GCSqGSIb3DQEBCwUAA4IBAQBK
BQaNxz+ZqBklAyVCGnRhSA7aF6sjKkmOg4F99j1l48Z7MOvrG+kbUNlvVwT/t9aE
cykVgWg0V/jC9Pw8CHL/QV/SVGJOOLyXCtI2yna2wNllYaDHFVILa0PCsbrO/nKG
rwpQOSDhqb1NYM9CO7i1it7323Bqn9gIZAFpwJmVmIH7KSS8045FPFKqaqttRM83
484wFpfBH88zbnlgnZwaOqWbILpjrbq/SQhAv9m+CTsf9mUTD6a18a+kKlqbs9ss
GrE8m9BKSkQyYTU+NVSrxVKMQdInNSB1Emo1nGwMpYjnNQDsSR+6Ph4nqUxNf1X0
VTRPiLltU1eeJ61qaziC
-----END CERTIFICATE-----
