Certificate:
    Data:
        Version: 3 (0x2)
        Serial Number: 58 (0x3a)
    Signature Algorithm: sha256WithRSAEncryption
        Issuer: C=RU, ST=RU, L=Yekaterinburg, O=ructf.org, OU=ructf, CN=ructf.org CA/name=DevVPN/emailAddress=dimmoborgir@gmail.com
        Validity
            Not Before: Mar 25 19:22:23 2016 GMT
            Not After : Mar 23 19:22:23 2026 GMT
        Subject: C=RU, ST=RU, L=Yekaterinburg, O=ructf.org, OU=ructf, CN=dev27/name=DevVPN/emailAddress=dimmoborgir@gmail.com
        Subject Public Key Info:
            Public Key Algorithm: rsaEncryption
                Public-Key: (2048 bit)
                Modulus:
                    00:a6:6d:3b:c7:1a:c8:31:b6:37:1e:6a:01:26:fd:
                    73:85:a6:16:25:9d:14:6f:46:c6:00:c1:08:4c:76:
                    ae:c1:2b:e3:35:0a:20:b1:75:d2:3e:82:e3:03:85:
                    d7:af:f9:39:c3:e6:fb:50:e9:85:36:e0:98:2f:b9:
                    ab:e2:1e:91:fc:c7:7b:db:33:b1:d2:23:43:62:f0:
                    da:44:06:53:73:7d:4a:6a:d4:7b:4e:61:f6:ce:25:
                    f7:8b:de:be:0b:d7:c4:b5:de:35:9f:67:37:46:d3:
                    ff:13:24:96:69:b3:ad:51:1c:b1:3b:e6:fc:47:16:
                    4a:ef:19:38:b7:49:ef:f1:2b:75:a4:53:01:53:e3:
                    2f:99:e1:7d:2e:48:99:c4:57:3b:f9:df:bb:05:ed:
                    ee:c9:26:fc:82:30:31:a4:c3:d8:2a:aa:12:cf:10:
                    57:a4:55:2a:fd:75:b4:64:eb:0f:1e:f1:f6:aa:64:
                    22:1f:62:7a:55:ef:7f:1c:14:5b:0c:51:99:94:42:
                    54:75:98:eb:33:8c:b7:c0:b7:d2:f6:bc:0b:b0:74:
                    3f:17:b3:13:d7:d0:b1:65:2c:60:25:29:36:c0:98:
                    82:a1:de:15:be:8e:94:fc:89:3d:2a:26:a7:a1:0b:
                    a0:9b:7c:81:43:e3:96:8c:ef:68:83:a0:0f:93:db:
                    8f:e9
                Exponent: 65537 (0x10001)
        X509v3 extensions:
            X509v3 Basic Constraints: 
                CA:FALSE
            Netscape Comment: 
                Easy-RSA Generated Certificate
            X509v3 Subject Key Identifier: 
                CE:59:B0:CE:ED:8D:8C:37:E3:35:5F:D0:A0:D3:FA:1A:B7:53:0F:DA
            X509v3 Authority Key Identifier: 
                keyid:51:72:5A:C7:75:83:A3:39:2E:20:20:E0:70:09:2E:0B:D8:3E:8C:2B
                DirName:/C=RU/ST=RU/L=Yekaterinburg/O=ructf.org/OU=ructf/CN=ructf.org CA/name=DevVPN/emailAddress=dimmoborgir@gmail.com
                serial:CD:45:70:F1:6A:E7:FD:B6

            X509v3 Extended Key Usage: 
                TLS Web Client Authentication
            X509v3 Key Usage: 
                Digital Signature
    Signature Algorithm: sha256WithRSAEncryption
         38:a8:dc:26:3c:13:2c:ff:a8:80:e1:95:8d:11:3c:a4:bc:05:
         82:b8:d4:c0:68:61:8a:da:0c:43:87:20:2e:48:4f:e0:eb:f7:
         47:d5:89:ca:db:b4:2a:ec:31:19:e3:c1:6e:38:30:4a:db:9a:
         82:cb:27:7d:38:6e:64:25:48:65:36:4d:e5:61:cb:0f:57:fc:
         82:02:95:8f:23:01:61:c8:95:12:58:bc:b8:af:e8:6c:17:8b:
         f7:ee:20:7e:e0:2c:b6:f9:69:c8:78:77:2f:d7:54:dd:fe:6b:
         9e:89:d1:6c:6b:52:ea:fc:74:34:34:57:fc:23:c7:3f:d6:25:
         83:ab:e1:f4:29:83:fa:20:c8:d6:22:ff:17:2c:35:94:d7:31:
         9e:10:73:ff:44:01:2f:a3:96:94:d5:e8:60:2b:5d:a9:ee:6c:
         90:0f:94:d0:7b:33:fe:67:d3:2f:58:ef:bf:ec:ef:3d:cd:28:
         f4:d4:a5:fc:3f:88:92:6e:09:be:0c:ce:16:b1:a2:64:41:bb:
         04:66:75:54:8c:4a:c0:33:b7:5a:ae:c1:1f:4c:30:f1:4b:58:
         5a:28:82:bf:61:d4:ad:34:c9:18:f9:e3:8f:0e:91:fe:1b:c8:
         b4:0e:11:ae:f3:69:7f:24:e9:4b:f6:cf:ca:0a:ee:76:90:ad:
         3b:44:a2:a9
-----BEGIN CERTIFICATE-----
MIIFGzCCBAOgAwIBAgIBOjANBgkqhkiG9w0BAQsFADCBpDELMAkGA1UEBhMCUlUx
CzAJBgNVBAgTAlJVMRYwFAYDVQQHEw1ZZWthdGVyaW5idXJnMRIwEAYDVQQKEwly
dWN0Zi5vcmcxDjAMBgNVBAsTBXJ1Y3RmMRUwEwYDVQQDEwxydWN0Zi5vcmcgQ0Ex
DzANBgNVBCkTBkRldlZQTjEkMCIGCSqGSIb3DQEJARYVZGltbW9ib3JnaXJAZ21h
aWwuY29tMB4XDTE2MDMyNTE5MjIyM1oXDTI2MDMyMzE5MjIyM1owgZ0xCzAJBgNV
BAYTAlJVMQswCQYDVQQIEwJSVTEWMBQGA1UEBxMNWWVrYXRlcmluYnVyZzESMBAG
A1UEChMJcnVjdGYub3JnMQ4wDAYDVQQLEwVydWN0ZjEOMAwGA1UEAxMFZGV2Mjcx
DzANBgNVBCkTBkRldlZQTjEkMCIGCSqGSIb3DQEJARYVZGltbW9ib3JnaXJAZ21h
aWwuY29tMIIBIjANBgkqhkiG9w0BAQEFAAOCAQ8AMIIBCgKCAQEApm07xxrIMbY3
HmoBJv1zhaYWJZ0Ub0bGAMEITHauwSvjNQogsXXSPoLjA4XXr/k5w+b7UOmFNuCY
L7mr4h6R/Md72zOx0iNDYvDaRAZTc31KatR7TmH2ziX3i96+C9fEtd41n2c3RtP/
EySWabOtURyxO+b8RxZK7xk4t0nv8St1pFMBU+MvmeF9LkiZxFc7+d+7Be3uySb8
gjAxpMPYKqoSzxBXpFUq/XW0ZOsPHvH2qmQiH2J6Ve9/HBRbDFGZlEJUdZjrM4y3
wLfS9rwLsHQ/F7MT19CxZSxgJSk2wJiCod4Vvo6U/Ik9KianoQugm3yBQ+OWjO9o
g6APk9uP6QIDAQABo4IBWzCCAVcwCQYDVR0TBAIwADAtBglghkgBhvhCAQ0EIBYe
RWFzeS1SU0EgR2VuZXJhdGVkIENlcnRpZmljYXRlMB0GA1UdDgQWBBTOWbDO7Y2M
N+M1X9Cg0/oat1MP2jCB2QYDVR0jBIHRMIHOgBRRclrHdYOjOS4gIOBwCS4L2D6M
K6GBqqSBpzCBpDELMAkGA1UEBhMCUlUxCzAJBgNVBAgTAlJVMRYwFAYDVQQHEw1Z
ZWthdGVyaW5idXJnMRIwEAYDVQQKEwlydWN0Zi5vcmcxDjAMBgNVBAsTBXJ1Y3Rm
MRUwEwYDVQQDEwxydWN0Zi5vcmcgQ0ExDzANBgNVBCkTBkRldlZQTjEkMCIGCSqG
SIb3DQEJARYVZGltbW9ib3JnaXJAZ21haWwuY29tggkAzUVw8Wrn/bYwEwYDVR0l
BAwwCgYIKwYBBQUHAwIwCwYDVR0PBAQDAgeAMA0GCSqGSIb3DQEBCwUAA4IBAQA4
qNwmPBMs/6iA4ZWNETykvAWCuNTAaGGK2gxDhyAuSE/g6/dH1YnK27Qq7DEZ48Fu
ODBK25qCyyd9OG5kJUhlNk3lYcsPV/yCApWPIwFhyJUSWLy4r+hsF4v37iB+4Cy2
+WnIeHcv11Td/mueidFsa1Lq/HQ0NFf8I8c/1iWDq+H0KYP6IMjWIv8XLDWU1zGe
EHP/RAEvo5aU1ehgK12p7myQD5TQezP+Z9MvWO+/7O89zSj01KX8P4iSbgm+DM4W
saJkQbsEZnVUjErAM7darsEfTDDxS1haKIK/YdStNMkY+eOPDpH+G8i0DhGu82l/
JOlL9s/KCu52kK07RKKp
-----END CERTIFICATE-----
