Certificate:
    Data:
        Version: 3 (0x2)
        Serial Number: 45 (0x2d)
    Signature Algorithm: sha256WithRSAEncryption
        Issuer: C=RU, ST=RU, L=Yekaterinburg, O=ructf.org, OU=ructf, CN=ructf.org CA/name=DevVPN/emailAddress=dimmoborgir@gmail.com
        Validity
            Not Before: Mar 25 19:22:19 2016 GMT
            Not After : Mar 23 19:22:19 2026 GMT
        Subject: C=RU, ST=RU, L=Yekaterinburg, O=ructf.org, OU=ructf, CN=dev14/name=DevVPN/emailAddress=dimmoborgir@gmail.com
        Subject Public Key Info:
            Public Key Algorithm: rsaEncryption
                Public-Key: (2048 bit)
                Modulus:
                    00:b3:df:b9:ca:c8:22:d5:f4:f9:98:90:ca:8f:c6:
                    58:61:83:1c:5c:c2:23:73:ce:cb:f1:97:2e:ab:9d:
                    ad:d9:33:c8:8f:a2:f3:c9:59:81:b4:41:07:8a:0f:
                    70:39:8f:7b:87:42:79:91:6f:64:22:01:69:4b:c4:
                    7b:b2:42:de:2e:ab:26:f2:07:27:7c:d7:0d:d0:2f:
                    93:c9:b4:41:d5:6f:b3:10:b8:2d:0c:49:e8:3b:35:
                    17:bb:06:0b:3c:11:ba:f9:e9:26:40:d8:75:e1:a4:
                    80:1a:4f:d9:32:da:80:66:29:86:39:65:25:6e:4a:
                    cf:20:85:85:2c:cd:31:d6:a6:7e:4f:25:b0:6f:7f:
                    20:7e:4b:89:d1:e5:e8:5b:07:b3:78:06:34:d5:36:
                    e5:70:ab:00:26:a1:f4:60:5b:b5:a5:65:dd:2a:f0:
                    29:29:78:4d:ef:52:3c:a0:a8:d0:b5:52:88:a0:3f:
                    5b:e7:03:05:5c:66:19:21:6d:93:a9:34:81:c2:77:
                    d7:9c:cc:28:62:14:0f:94:7d:9c:87:2b:86:74:d4:
                    ed:7f:e3:6a:eb:6e:d5:4e:97:ac:9a:64:b7:df:58:
                    c6:39:9b:bb:de:a8:ad:b1:b7:22:ab:7f:bf:94:7e:
                    e6:3a:c8:ea:51:bf:ab:ba:20:84:bc:71:10:dd:e2:
                    81:4d
                Exponent: 65537 (0x10001)
        X509v3 extensions:
            X509v3 Basic Constraints: 
                CA:FALSE
            Netscape Comment: 
                Easy-RSA Generated Certificate
            X509v3 Subject Key Identifier: 
                21:4B:2B:1B:E6:59:17:72:E0:C8:06:8C:20:21:A4:A2:87:31:0B:16
            X509v3 Authority Key Identifier: 
                keyid:51:72:5A:C7:75:83:A3:39:2E:20:20:E0:70:09:2E:0B:D8:3E:8C:2B
                DirName:/C=RU/ST=RU/L=Yekaterinburg/O=ructf.org/OU=ructf/CN=ructf.org CA/name=DevVPN/emailAddress=dimmoborgir@gmail.com
                serial:CD:45:70:F1:6A:E7:FD:B6

            X509v3 Extended Key Usage: 
                TLS Web Client Authentication
            X509v3 Key Usage: 
                Digital Signature
    Signature Algorithm: sha256WithRSAEncryption
         7a:28:4e:2c:cc:de:b7:29:1c:07:65:58:40:7a:c6:7a:5b:94:
         2a:9e:6c:73:78:0c:81:80:2a:67:ba:41:f5:7d:c7:06:ee:fb:
         22:c6:a0:68:e6:37:d4:fc:3c:15:72:12:79:d0:5e:ba:9a:1a:
         a5:ba:89:9d:46:7c:a7:fb:a2:3e:93:bf:e9:a3:d5:dd:a1:26:
         7e:cc:49:21:89:b3:3a:ef:75:e8:7d:b6:62:28:67:7e:f1:33:
         c5:6c:d4:64:5c:fe:db:21:f8:98:3c:98:af:47:47:e5:78:90:
         38:cb:a2:c3:06:27:ad:25:d8:06:a1:e1:e9:cb:0c:83:97:83:
         7a:6e:33:5f:32:03:5b:8a:74:75:1f:a4:db:30:26:05:aa:ef:
         4b:5e:fe:1b:de:1f:c5:10:2f:34:ea:f1:18:b2:52:00:1f:a5:
         50:58:c2:67:44:49:c1:b3:27:55:a6:d3:0e:1e:0c:2e:6b:c8:
         ff:67:af:ca:96:c8:df:3e:50:2f:62:75:09:c9:e9:d2:c1:e6:
         31:47:36:60:da:6f:b6:79:53:71:17:ed:32:2e:66:7c:20:91:
         c0:8f:61:7a:0f:55:ef:a8:d6:a4:40:a2:57:c1:45:e1:42:a8:
         52:90:99:be:c4:04:a3:25:fe:10:07:76:e6:a7:55:b0:f9:26:
         55:f6:19:43
-----BEGIN CERTIFICATE-----
MIIFGzCCBAOgAwIBAgIBLTANBgkqhkiG9w0BAQsFADCBpDELMAkGA1UEBhMCUlUx
CzAJBgNVBAgTAlJVMRYwFAYDVQQHEw1ZZWthdGVyaW5idXJnMRIwEAYDVQQKEwly
dWN0Zi5vcmcxDjAMBgNVBAsTBXJ1Y3RmMRUwEwYDVQQDEwxydWN0Zi5vcmcgQ0Ex
DzANBgNVBCkTBkRldlZQTjEkMCIGCSqGSIb3DQEJARYVZGltbW9ib3JnaXJAZ21h
aWwuY29tMB4XDTE2MDMyNTE5MjIxOVoXDTI2MDMyMzE5MjIxOVowgZ0xCzAJBgNV
BAYTAlJVMQswCQYDVQQIEwJSVTEWMBQGA1UEBxMNWWVrYXRlcmluYnVyZzESMBAG
A1UEChMJcnVjdGYub3JnMQ4wDAYDVQQLEwVydWN0ZjEOMAwGA1UEAxMFZGV2MTQx
DzANBgNVBCkTBkRldlZQTjEkMCIGCSqGSIb3DQEJARYVZGltbW9ib3JnaXJAZ21h
aWwuY29tMIIBIjANBgkqhkiG9w0BAQEFAAOCAQ8AMIIBCgKCAQEAs9+5ysgi1fT5
mJDKj8ZYYYMcXMIjc87L8Zcuq52t2TPIj6LzyVmBtEEHig9wOY97h0J5kW9kIgFp
S8R7skLeLqsm8gcnfNcN0C+TybRB1W+zELgtDEnoOzUXuwYLPBG6+ekmQNh14aSA
Gk/ZMtqAZimGOWUlbkrPIIWFLM0x1qZ+TyWwb38gfkuJ0eXoWwezeAY01TblcKsA
JqH0YFu1pWXdKvApKXhN71I8oKjQtVKIoD9b5wMFXGYZIW2TqTSBwnfXnMwoYhQP
lH2chyuGdNTtf+Nq627VTpesmmS331jGOZu73qitsbciq3+/lH7mOsjqUb+ruiCE
vHEQ3eKBTQIDAQABo4IBWzCCAVcwCQYDVR0TBAIwADAtBglghkgBhvhCAQ0EIBYe
RWFzeS1SU0EgR2VuZXJhdGVkIENlcnRpZmljYXRlMB0GA1UdDgQWBBQhSysb5lkX
cuDIBowgIaSihzELFjCB2QYDVR0jBIHRMIHOgBRRclrHdYOjOS4gIOBwCS4L2D6M
K6GBqqSBpzCBpDELMAkGA1UEBhMCUlUxCzAJBgNVBAgTAlJVMRYwFAYDVQQHEw1Z
ZWthdGVyaW5idXJnMRIwEAYDVQQKEwlydWN0Zi5vcmcxDjAMBgNVBAsTBXJ1Y3Rm
MRUwEwYDVQQDEwxydWN0Zi5vcmcgQ0ExDzANBgNVBCkTBkRldlZQTjEkMCIGCSqG
SIb3DQEJARYVZGltbW9ib3JnaXJAZ21haWwuY29tggkAzUVw8Wrn/bYwEwYDVR0l
BAwwCgYIKwYBBQUHAwIwCwYDVR0PBAQDAgeAMA0GCSqGSIb3DQEBCwUAA4IBAQB6
KE4szN63KRwHZVhAesZ6W5QqnmxzeAyBgCpnukH1fccG7vsixqBo5jfU/DwVchJ5
0F66mhqluomdRnyn+6I+k7/po9XdoSZ+zEkhibM673XofbZiKGd+8TPFbNRkXP7b
IfiYPJivR0fleJA4y6LDBietJdgGoeHpywyDl4N6bjNfMgNbinR1H6TbMCYFqu9L
Xv4b3h/FEC806vEYslIAH6VQWMJnREnBsydVptMOHgwua8j/Z6/KlsjfPlAvYnUJ
yenSweYxRzZg2m+2eVNxF+0yLmZ8IJHAj2F6D1XvqNakQKJXwUXhQqhSkJm+xASj
Jf4QB3bmp1Ww+SZV9hlD
-----END CERTIFICATE-----
