Certificate:
    Data:
        Version: 3 (0x2)
        Serial Number: 43 (0x2b)
    Signature Algorithm: sha256WithRSAEncryption
        Issuer: C=RU, ST=RU, L=Yekaterinburg, O=ructf.org, OU=ructf, CN=ructf.org CA/name=DevVPN/emailAddress=dimmoborgir@gmail.com
        Validity
            Not Before: Mar 25 19:22:19 2016 GMT
            Not After : Mar 23 19:22:19 2026 GMT
        Subject: C=RU, ST=RU, L=Yekaterinburg, O=ructf.org, OU=ructf, CN=dev12/name=DevVPN/emailAddress=dimmoborgir@gmail.com
        Subject Public Key Info:
            Public Key Algorithm: rsaEncryption
                Public-Key: (2048 bit)
                Modulus:
                    00:cb:38:80:1f:89:f3:49:04:0d:38:34:60:9e:65:
                    fa:b9:9d:e1:a3:e3:b7:5c:4c:15:d8:ad:3c:be:db:
                    9c:b9:c7:fd:7b:fa:c1:4c:42:aa:b3:68:80:3d:21:
                    34:8f:ab:80:b2:63:df:ba:ff:29:e2:91:4e:e7:db:
                    26:03:b4:06:1e:9f:1d:98:4f:04:23:5c:16:07:42:
                    e8:f5:37:94:15:ec:7d:ab:f5:28:c7:82:44:95:04:
                    f5:d3:06:c2:57:cf:a6:6b:12:01:39:dc:de:cf:12:
                    26:13:c5:4b:26:1c:20:fa:bb:b8:ea:eb:31:06:10:
                    43:75:09:15:21:0b:1d:85:6e:36:f2:b9:1e:cc:e3:
                    7e:4a:af:ac:1d:89:69:8c:ab:bc:7d:44:40:cc:db:
                    ec:53:be:06:ed:74:ff:b3:32:d0:db:6b:f3:5d:49:
                    33:da:41:00:fb:30:82:c4:b2:e8:54:23:6c:97:84:
                    f7:ae:2e:12:f1:07:d1:0d:44:80:4c:da:06:5a:07:
                    73:b7:16:e3:9b:a4:4e:0f:e9:f1:3e:66:00:03:0c:
                    dc:c5:f2:9e:99:c9:08:53:3f:4d:fd:f6:99:01:97:
                    13:28:3b:bd:ff:5a:c9:11:28:2b:ae:54:56:93:eb:
                    b3:ee:11:62:c5:c6:71:25:f2:3c:10:f4:fa:d3:65:
                    c9:a3
                Exponent: 65537 (0x10001)
        X509v3 extensions:
            X509v3 Basic Constraints: 
                CA:FALSE
            Netscape Comment: 
                Easy-RSA Generated Certificate
            X509v3 Subject Key Identifier: 
                0E:A1:4E:75:41:E1:35:94:13:5D:50:F1:F3:D9:D6:F0:97:91:73:92
            X509v3 Authority Key Identifier: 
                keyid:51:72:5A:C7:75:83:A3:39:2E:20:20:E0:70:09:2E:0B:D8:3E:8C:2B
                DirName:/C=RU/ST=RU/L=Yekaterinburg/O=ructf.org/OU=ructf/CN=ructf.org CA/name=DevVPN/emailAddress=dimmoborgir@gmail.com
                serial:CD:45:70:F1:6A:E7:FD:B6

            X509v3 Extended Key Usage: 
                TLS Web Client Authentication
            X509v3 Key Usage: 
                Digital Signature
    Signature Algorithm: sha256WithRSAEncryption
         2f:27:c5:70:c8:eb:d2:79:bc:60:32:53:ef:ff:67:d5:b0:2d:
         6b:9f:b0:03:e8:3d:63:a6:8c:54:d3:0b:cb:b0:72:31:31:47:
         d7:4e:d8:3c:cb:e3:ce:48:eb:ea:a6:83:fa:64:d3:ed:75:2a:
         99:e9:e4:2c:e8:1c:5f:95:54:15:b4:f0:3e:e6:e7:d7:79:df:
         ea:93:e6:97:e5:73:a3:71:98:3f:c2:00:45:c8:d8:41:b9:5b:
         a1:5f:f2:b8:08:5e:b2:6f:41:cb:76:52:39:5d:70:a6:71:99:
         31:0e:bc:62:eb:a7:ad:66:c2:99:3b:36:bd:52:ba:9d:89:31:
         88:d6:89:2e:76:a2:39:3b:c9:2d:23:db:1a:2a:3e:c0:9c:b0:
         33:ee:a9:83:a4:fd:f6:da:f4:15:46:72:0e:f9:33:16:08:67:
         4b:02:95:e3:16:57:2e:6b:b9:8e:a6:a9:a2:b0:57:4c:54:b1:
         5d:fc:92:ee:e7:56:e8:e4:13:1f:f0:34:9f:1f:24:e1:8e:7b:
         53:d1:30:d4:1f:54:92:30:c4:44:e6:c5:01:7b:bc:59:00:1b:
         f4:34:d2:6b:a3:4a:6f:c6:57:e5:d1:02:b3:8b:4f:2d:d2:11:
         c2:93:ef:6c:01:af:57:1e:c0:69:0e:b7:f6:1c:38:1c:db:bc:
         06:4a:f4:8c
-----BEGIN CERTIFICATE-----
MIIFGzCCBAOgAwIBAgIBKzANBgkqhkiG9w0BAQsFADCBpDELMAkGA1UEBhMCUlUx
CzAJBgNVBAgTAlJVMRYwFAYDVQQHEw1ZZWthdGVyaW5idXJnMRIwEAYDVQQKEwly
dWN0Zi5vcmcxDjAMBgNVBAsTBXJ1Y3RmMRUwEwYDVQQDEwxydWN0Zi5vcmcgQ0Ex
DzANBgNVBCkTBkRldlZQTjEkMCIGCSqGSIb3DQEJARYVZGltbW9ib3JnaXJAZ21h
aWwuY29tMB4XDTE2MDMyNTE5MjIxOVoXDTI2MDMyMzE5MjIxOVowgZ0xCzAJBgNV
BAYTAlJVMQswCQYDVQQIEwJSVTEWMBQGA1UEBxMNWWVrYXRlcmluYnVyZzESMBAG
A1UEChMJcnVjdGYub3JnMQ4wDAYDVQQLEwVydWN0ZjEOMAwGA1UEAxMFZGV2MTIx
DzANBgNVBCkTBkRldlZQTjEkMCIGCSqGSIb3DQEJARYVZGltbW9ib3JnaXJAZ21h
aWwuY29tMIIBIjANBgkqhkiG9w0BAQEFAAOCAQ8AMIIBCgKCAQEAyziAH4nzSQQN
ODRgnmX6uZ3ho+O3XEwV2K08vtucucf9e/rBTEKqs2iAPSE0j6uAsmPfuv8p4pFO
59smA7QGHp8dmE8EI1wWB0Lo9TeUFex9q/Uox4JElQT10wbCV8+maxIBOdzezxIm
E8VLJhwg+ru46usxBhBDdQkVIQsdhW428rkezON+Sq+sHYlpjKu8fURAzNvsU74G
7XT/szLQ22vzXUkz2kEA+zCCxLLoVCNsl4T3ri4S8QfRDUSATNoGWgdztxbjm6RO
D+nxPmYAAwzcxfKemckIUz9N/faZAZcTKDu9/1rJESgrrlRWk+uz7hFixcZxJfI8
EPT602XJowIDAQABo4IBWzCCAVcwCQYDVR0TBAIwADAtBglghkgBhvhCAQ0EIBYe
RWFzeS1SU0EgR2VuZXJhdGVkIENlcnRpZmljYXRlMB0GA1UdDgQWBBQOoU51QeE1
lBNdUPHz2dbwl5FzkjCB2QYDVR0jBIHRMIHOgBRRclrHdYOjOS4gIOBwCS4L2D6M
K6GBqqSBpzCBpDELMAkGA1UEBhMCUlUxCzAJBgNVBAgTAlJVMRYwFAYDVQQHEw1Z
ZWthdGVyaW5idXJnMRIwEAYDVQQKEwlydWN0Zi5vcmcxDjAMBgNVBAsTBXJ1Y3Rm
MRUwEwYDVQQDEwxydWN0Zi5vcmcgQ0ExDzANBgNVBCkTBkRldlZQTjEkMCIGCSqG
SIb3DQEJARYVZGltbW9ib3JnaXJAZ21haWwuY29tggkAzUVw8Wrn/bYwEwYDVR0l
BAwwCgYIKwYBBQUHAwIwCwYDVR0PBAQDAgeAMA0GCSqGSIb3DQEBCwUAA4IBAQAv
J8VwyOvSebxgMlPv/2fVsC1rn7AD6D1jpoxU0wvLsHIxMUfXTtg8y+POSOvqpoP6
ZNPtdSqZ6eQs6BxflVQVtPA+5ufXed/qk+aX5XOjcZg/wgBFyNhBuVuhX/K4CF6y
b0HLdlI5XXCmcZkxDrxi66etZsKZOza9UrqdiTGI1okudqI5O8ktI9saKj7AnLAz
7qmDpP322vQVRnIO+TMWCGdLApXjFlcua7mOpqmisFdMVLFd/JLu51bo5BMf8DSf
HyThjntT0TDUH1SSMMRE5sUBe7xZABv0NNJro0pvxlfl0QKzi08t0hHCk+9sAa9X
HsBpDrf2HDgc27wGSvSM
-----END CERTIFICATE-----
