Certificate:
    Data:
        Version: 3 (0x2)
        Serial Number: 57 (0x39)
    Signature Algorithm: sha256WithRSAEncryption
        Issuer: C=RU, ST=RU, L=Yekaterinburg, O=ructf.org, OU=ructf, CN=ructf.org CA/name=DevVPN/emailAddress=dimmoborgir@gmail.com
        Validity
            Not Before: Mar 25 19:22:23 2016 GMT
            Not After : Mar 23 19:22:23 2026 GMT
        Subject: C=RU, ST=RU, L=Yekaterinburg, O=ructf.org, OU=ructf, CN=dev26/name=DevVPN/emailAddress=dimmoborgir@gmail.com
        Subject Public Key Info:
            Public Key Algorithm: rsaEncryption
                Public-Key: (2048 bit)
                Modulus:
                    00:c8:bd:be:44:4a:5b:01:c1:16:28:37:bc:f7:5d:
                    23:6a:45:be:fc:7f:b7:20:50:e7:ab:e7:86:d3:33:
                    43:21:b5:9e:92:1d:67:b0:04:e5:d4:09:5c:1e:f5:
                    18:cd:81:db:e1:91:22:c0:97:95:28:e8:58:61:2f:
                    9b:34:f0:29:35:ab:40:f9:a2:24:7a:d6:fa:be:8c:
                    65:9d:72:8c:6c:ef:7c:31:fc:67:47:de:3c:bd:a0:
                    fd:53:35:4e:94:47:ec:19:a4:73:a6:12:66:47:55:
                    d7:63:86:13:2c:97:59:2a:8e:f2:0f:41:d2:27:95:
                    0c:57:d1:34:6b:f9:d4:a5:ab:5b:aa:a7:8f:40:77:
                    2d:f0:a3:20:25:f4:f8:91:f1:9e:2a:16:57:4f:b2:
                    92:74:9b:6e:39:a6:5b:df:95:40:19:74:6a:34:2e:
                    64:e3:2b:72:11:d5:10:89:0c:5b:68:aa:26:98:fe:
                    54:40:1d:b9:0c:c5:cc:57:76:f4:50:8c:76:b9:64:
                    42:f8:b9:f7:ae:cc:a9:96:b0:82:61:1d:03:68:4f:
                    7d:66:99:c4:09:4e:d9:44:6a:40:d1:02:b1:df:20:
                    a8:ea:0d:0c:d1:6a:82:48:a7:1d:a9:f0:d8:5f:cb:
                    51:ea:fb:cf:5b:3a:a7:9e:fa:37:2e:8a:7e:25:b1:
                    1d:57
                Exponent: 65537 (0x10001)
        X509v3 extensions:
            X509v3 Basic Constraints: 
                CA:FALSE
            Netscape Comment: 
                Easy-RSA Generated Certificate
            X509v3 Subject Key Identifier: 
                23:28:96:09:81:CE:8B:51:BE:47:4C:64:92:52:F9:B6:84:EF:23:29
            X509v3 Authority Key Identifier: 
                keyid:51:72:5A:C7:75:83:A3:39:2E:20:20:E0:70:09:2E:0B:D8:3E:8C:2B
                DirName:/C=RU/ST=RU/L=Yekaterinburg/O=ructf.org/OU=ructf/CN=ructf.org CA/name=DevVPN/emailAddress=dimmoborgir@gmail.com
                serial:CD:45:70:F1:6A:E7:FD:B6

            X509v3 Extended Key Usage: 
                TLS Web Client Authentication
            X509v3 Key Usage: 
                Digital Signature
    Signature Algorithm: sha256WithRSAEncryption
         95:7a:07:74:35:06:6c:a7:be:e3:05:26:78:c9:c5:57:ff:f0:
         95:e3:85:f1:ef:c1:1c:32:d3:ff:98:a6:c0:b4:ba:85:54:17:
         6e:5e:86:01:78:06:18:c9:7f:74:33:7b:21:c2:5b:9a:ff:a7:
         7b:ab:c8:8b:c3:0d:a9:ef:95:3e:9e:a7:74:01:0b:0c:84:49:
         ec:01:fe:c5:86:e8:be:80:d4:28:91:13:97:14:3a:22:91:b2:
         93:49:34:c6:e4:20:52:fa:41:20:0d:6a:5b:e8:2b:32:9b:57:
         d0:53:8c:2f:6b:f3:bc:b0:1c:c0:d4:5d:b1:d4:d6:06:89:73:
         ed:a6:d0:28:ec:1d:a7:2a:1f:54:23:74:55:1a:c7:3c:a0:da:
         aa:58:01:6a:7e:64:24:14:6d:1a:59:2e:ab:72:97:27:88:d5:
         bf:2f:79:57:92:59:4e:32:a9:18:7f:af:90:54:be:0d:7c:9c:
         d0:c6:86:06:1d:8e:d7:c9:3f:61:95:ff:5d:e9:0e:58:96:2e:
         99:10:2a:10:ca:82:12:c2:b3:71:e5:b4:b3:e0:6e:52:ab:de:
         29:33:a1:93:e8:ec:7a:56:ee:5c:71:ab:2a:0e:55:ab:b2:2c:
         c2:1b:46:6e:8b:28:86:47:2d:6c:97:94:26:07:8d:f3:c7:7c:
         2b:93:dd:9f
-----BEGIN CERTIFICATE-----
MIIFGzCCBAOgAwIBAgIBOTANBgkqhkiG9w0BAQsFADCBpDELMAkGA1UEBhMCUlUx
CzAJBgNVBAgTAlJVMRYwFAYDVQQHEw1ZZWthdGVyaW5idXJnMRIwEAYDVQQKEwly
dWN0Zi5vcmcxDjAMBgNVBAsTBXJ1Y3RmMRUwEwYDVQQDEwxydWN0Zi5vcmcgQ0Ex
DzANBgNVBCkTBkRldlZQTjEkMCIGCSqGSIb3DQEJARYVZGltbW9ib3JnaXJAZ21h
aWwuY29tMB4XDTE2MDMyNTE5MjIyM1oXDTI2MDMyMzE5MjIyM1owgZ0xCzAJBgNV
BAYTAlJVMQswCQYDVQQIEwJSVTEWMBQGA1UEBxMNWWVrYXRlcmluYnVyZzESMBAG
A1UEChMJcnVjdGYub3JnMQ4wDAYDVQQLEwVydWN0ZjEOMAwGA1UEAxMFZGV2MjYx
DzANBgNVBCkTBkRldlZQTjEkMCIGCSqGSIb3DQEJARYVZGltbW9ib3JnaXJAZ21h
aWwuY29tMIIBIjANBgkqhkiG9w0BAQEFAAOCAQ8AMIIBCgKCAQEAyL2+REpbAcEW
KDe8910jakW+/H+3IFDnq+eG0zNDIbWekh1nsATl1AlcHvUYzYHb4ZEiwJeVKOhY
YS+bNPApNatA+aIketb6voxlnXKMbO98MfxnR948vaD9UzVOlEfsGaRzphJmR1XX
Y4YTLJdZKo7yD0HSJ5UMV9E0a/nUpatbqqePQHct8KMgJfT4kfGeKhZXT7KSdJtu
OaZb35VAGXRqNC5k4ytyEdUQiQxbaKommP5UQB25DMXMV3b0UIx2uWRC+Ln3rsyp
lrCCYR0DaE99ZpnECU7ZRGpA0QKx3yCo6g0M0WqCSKcdqfDYX8tR6vvPWzqnnvo3
Lop+JbEdVwIDAQABo4IBWzCCAVcwCQYDVR0TBAIwADAtBglghkgBhvhCAQ0EIBYe
RWFzeS1SU0EgR2VuZXJhdGVkIENlcnRpZmljYXRlMB0GA1UdDgQWBBQjKJYJgc6L
Ub5HTGSSUvm2hO8jKTCB2QYDVR0jBIHRMIHOgBRRclrHdYOjOS4gIOBwCS4L2D6M
K6GBqqSBpzCBpDELMAkGA1UEBhMCUlUxCzAJBgNVBAgTAlJVMRYwFAYDVQQHEw1Z
ZWthdGVyaW5idXJnMRIwEAYDVQQKEwlydWN0Zi5vcmcxDjAMBgNVBAsTBXJ1Y3Rm
MRUwEwYDVQQDEwxydWN0Zi5vcmcgQ0ExDzANBgNVBCkTBkRldlZQTjEkMCIGCSqG
SIb3DQEJARYVZGltbW9ib3JnaXJAZ21haWwuY29tggkAzUVw8Wrn/bYwEwYDVR0l
BAwwCgYIKwYBBQUHAwIwCwYDVR0PBAQDAgeAMA0GCSqGSIb3DQEBCwUAA4IBAQCV
egd0NQZsp77jBSZ4ycVX//CV44Xx78EcMtP/mKbAtLqFVBduXoYBeAYYyX90M3sh
wlua/6d7q8iLww2p75U+nqd0AQsMhEnsAf7Fhui+gNQokROXFDoikbKTSTTG5CBS
+kEgDWpb6Csym1fQU4wva/O8sBzA1F2x1NYGiXPtptAo7B2nKh9UI3RVGsc8oNqq
WAFqfmQkFG0aWS6rcpcniNW/L3lXkllOMqkYf6+QVL4NfJzQxoYGHY7XyT9hlf9d
6Q5Yli6ZECoQyoISwrNx5bSz4G5Sq94pM6GT6Ox6Vu5ccasqDlWrsizCG0ZuiyiG
Ry1sl5QmB43zx3wrk92f
-----END CERTIFICATE-----
